	.cpu cortex-m4
	.eabi_attribute 27, 1
	.eabi_attribute 28, 1
	.eabi_attribute 20, 1
	.eabi_attribute 21, 1
	.eabi_attribute 23, 3
	.eabi_attribute 24, 1
	.eabi_attribute 25, 1
	.eabi_attribute 26, 1
	.eabi_attribute 30, 6
	.eabi_attribute 34, 1
	.eabi_attribute 18, 4
	.file	"main.c"
	.text
.Ltext0:
	.section	.text.NVIC_ClearPendingIRQ,"ax",%progbits
	.align	1
	.syntax unified
	.thumb
	.thumb_func
	.fpu fpv4-sp-d16
	.type	NVIC_ClearPendingIRQ, %function
NVIC_ClearPendingIRQ:
.LFB112:
	.file 1 "C:/Users/arnau/AppData/Local/SEGGER/SEGGER Embedded Studio/v3/packages/CMSIS_4/CMSIS/Include/core_cm4.h"
	.loc 1 1673 1
	@ args = 0, pretend = 0, frame = 8
	@ frame_needed = 0, uses_anonymous_args = 0
	@ link register save eliminated.
	sub	sp, sp, #8
.LCFI0:
	mov	r3, r0
	strb	r3, [sp, #7]
	.loc 1 1674 97
	ldrb	r3, [sp, #7]	@ zero_extendqisi2
	and	r2, r3, #31
	.loc 1 1674 7
	ldr	r1, .L2
	.loc 1 1674 16
	ldrsb	r3, [sp, #7]
	.loc 1 1674 41
	lsrs	r3, r3, #5
	.loc 1 1674 67
	movs	r0, #1
	lsl	r2, r0, r2
	.loc 1 1674 50
	adds	r3, r3, #96
	str	r2, [r1, r3, lsl #2]
	.loc 1 1675 1
	nop
	add	sp, sp, #8
.LCFI1:
	@ sp needed
	bx	lr
.L3:
	.align	2
.L2:
	.word	-536813312
.LFE112:
	.size	NVIC_ClearPendingIRQ, .-NVIC_ClearPendingIRQ
	.section	.text.NVIC_SystemReset,"ax",%progbits
	.align	1
	.syntax unified
	.thumb
	.thumb_func
	.fpu fpv4-sp-d16
	.type	NVIC_SystemReset, %function
NVIC_SystemReset:
.LFB118:
	.loc 1 1791 1
	@ args = 0, pretend = 0, frame = 0
	@ frame_needed = 0, uses_anonymous_args = 0
	@ link register save eliminated.
.LBB15:
.LBB16:
	.file 2 "C:/Users/arnau/AppData/Local/SEGGER/SEGGER Embedded Studio/v3/packages/CMSIS_4/CMSIS/Include/cmsis_gcc.h"
	.loc 2 433 3
	.syntax unified
@ 433 "C:/Users/arnau/AppData/Local/SEGGER/SEGGER Embedded Studio/v3/packages/CMSIS_4/CMSIS/Include/cmsis_gcc.h" 1
	dsb 0xF
@ 0 "" 2
	.thumb
	.syntax unified
.LBE16:
.LBE15:
	.loc 1 1795 32
	ldr	r3, .L6
	ldr	r3, [r3, #12]
	.loc 1 1795 40
	and	r2, r3, #1792
	.loc 1 1794 6
	ldr	r1, .L6
	.loc 1 1795 66
	ldr	r3, .L6+4
	orrs	r3, r3, r2
	.loc 1 1794 15
	str	r3, [r1, #12]
.LBB17:
.LBB18:
	.loc 2 433 3
	.syntax unified
@ 433 "C:/Users/arnau/AppData/Local/SEGGER/SEGGER Embedded Studio/v3/packages/CMSIS_4/CMSIS/Include/cmsis_gcc.h" 1
	dsb 0xF
@ 0 "" 2
	.thumb
	.syntax unified
.L5:
.LBE18:
.LBE17:
.LBB19:
.LBB20:
	.loc 2 379 3 discriminator 1
	.syntax unified
@ 379 "C:/Users/arnau/AppData/Local/SEGGER/SEGGER Embedded Studio/v3/packages/CMSIS_4/CMSIS/Include/cmsis_gcc.h" 1
	nop
@ 0 "" 2
	.thumb
	.syntax unified
.LBE20:
.LBE19:
	.loc 1 1801 5 discriminator 1
	b	.L5
.L7:
	.align	2
.L6:
	.word	-536810240
	.word	100270084
.LFE118:
	.size	NVIC_SystemReset, .-NVIC_SystemReset
	.section	.text.sd_ble_gap_addr_set,"ax",%progbits
	.align	1
	.syntax unified
	.thumb
	.thumb_func
	.fpu fpv4-sp-d16
	.type	sd_ble_gap_addr_set, %function
sd_ble_gap_addr_set:
.LFB124:
	.file 3 "../../../sdk_components/softdevice/s132/headers/ble_gap.h"
	.loc 3 1261 1
	@ Naked Function: prologue and epilogue provided by programmer.
	@ args = 0, pretend = 0, frame = 0
	@ frame_needed = 0, uses_anonymous_args = 0
	.loc 3 1261 1
	.syntax unified
@ 1261 "../../../sdk_components/softdevice/s132/headers/ble_gap.h" 1
	svc #108
bx r14
@ 0 "" 2
	.thumb
	.syntax unified
	nop
	mov	r0, r3
.LFE124:
	.size	sd_ble_gap_addr_set, .-sd_ble_gap_addr_set
	.section	.text.sd_ble_gap_addr_get,"ax",%progbits
	.align	1
	.syntax unified
	.thumb
	.thumb_func
	.fpu fpv4-sp-d16
	.type	sd_ble_gap_addr_get, %function
sd_ble_gap_addr_get:
.LFB125:
	.loc 3 1274 1
	@ Naked Function: prologue and epilogue provided by programmer.
	@ args = 0, pretend = 0, frame = 0
	@ frame_needed = 0, uses_anonymous_args = 0
	.loc 3 1274 1
	.syntax unified
@ 1274 "../../../sdk_components/softdevice/s132/headers/ble_gap.h" 1
	svc #109
bx r14
@ 0 "" 2
	.thumb
	.syntax unified
	nop
	mov	r0, r3
.LFE125:
	.size	sd_ble_gap_addr_get, .-sd_ble_gap_addr_get
	.section	.text.sd_ble_gap_whitelist_set,"ax",%progbits
	.align	1
	.syntax unified
	.thumb
	.thumb_func
	.fpu fpv4-sp-d16
	.type	sd_ble_gap_whitelist_set, %function
sd_ble_gap_whitelist_set:
.LFB126:
	.loc 3 1300 1
	@ Naked Function: prologue and epilogue provided by programmer.
	@ args = 0, pretend = 0, frame = 0
	@ frame_needed = 0, uses_anonymous_args = 0
	.loc 3 1300 1
	.syntax unified
@ 1300 "../../../sdk_components/softdevice/s132/headers/ble_gap.h" 1
	svc #110
bx r14
@ 0 "" 2
	.thumb
	.syntax unified
	nop
	mov	r0, r3
.LFE126:
	.size	sd_ble_gap_whitelist_set, .-sd_ble_gap_whitelist_set
	.section	.text.sd_ble_gap_device_identities_set,"ax",%progbits
	.align	1
	.syntax unified
	.thumb
	.thumb_func
	.fpu fpv4-sp-d16
	.type	sd_ble_gap_device_identities_set, %function
sd_ble_gap_device_identities_set:
.LFB127:
	.loc 3 1331 1
	@ Naked Function: prologue and epilogue provided by programmer.
	@ args = 0, pretend = 0, frame = 0
	@ frame_needed = 0, uses_anonymous_args = 0
	.loc 3 1331 1
	.syntax unified
@ 1331 "../../../sdk_components/softdevice/s132/headers/ble_gap.h" 1
	svc #111
bx r14
@ 0 "" 2
	.thumb
	.syntax unified
	nop
	mov	r0, r3
.LFE127:
	.size	sd_ble_gap_device_identities_set, .-sd_ble_gap_device_identities_set
	.section	.text.sd_ble_gap_privacy_set,"ax",%progbits
	.align	1
	.syntax unified
	.thumb
	.thumb_func
	.fpu fpv4-sp-d16
	.type	sd_ble_gap_privacy_set, %function
sd_ble_gap_privacy_set:
.LFB128:
	.loc 3 1355 1
	@ Naked Function: prologue and epilogue provided by programmer.
	@ args = 0, pretend = 0, frame = 0
	@ frame_needed = 0, uses_anonymous_args = 0
	.loc 3 1355 1
	.syntax unified
@ 1355 "../../../sdk_components/softdevice/s132/headers/ble_gap.h" 1
	svc #112
bx r14
@ 0 "" 2
	.thumb
	.syntax unified
	nop
	mov	r0, r3
.LFE128:
	.size	sd_ble_gap_privacy_set, .-sd_ble_gap_privacy_set
	.section	.text.sd_ble_gap_privacy_get,"ax",%progbits
	.align	1
	.syntax unified
	.thumb
	.thumb_func
	.fpu fpv4-sp-d16
	.type	sd_ble_gap_privacy_get, %function
sd_ble_gap_privacy_get:
.LFB129:
	.loc 3 1368 1
	@ Naked Function: prologue and epilogue provided by programmer.
	@ args = 0, pretend = 0, frame = 0
	@ frame_needed = 0, uses_anonymous_args = 0
	.loc 3 1368 1
	.syntax unified
@ 1368 "../../../sdk_components/softdevice/s132/headers/ble_gap.h" 1
	svc #113
bx r14
@ 0 "" 2
	.thumb
	.syntax unified
	nop
	mov	r0, r3
.LFE129:
	.size	sd_ble_gap_privacy_get, .-sd_ble_gap_privacy_get
	.section	.text.sd_ble_gap_adv_data_set,"ax",%progbits
	.align	1
	.syntax unified
	.thumb
	.thumb_func
	.fpu fpv4-sp-d16
	.type	sd_ble_gap_adv_data_set, %function
sd_ble_gap_adv_data_set:
.LFB130:
	.loc 3 1401 1
	@ Naked Function: prologue and epilogue provided by programmer.
	@ args = 0, pretend = 0, frame = 0
	@ frame_needed = 0, uses_anonymous_args = 0
	.loc 3 1401 1
	.syntax unified
@ 1401 "../../../sdk_components/softdevice/s132/headers/ble_gap.h" 1
	svc #114
bx r14
@ 0 "" 2
	.thumb
	.syntax unified
	nop
	mov	r0, r3
.LFE130:
	.size	sd_ble_gap_adv_data_set, .-sd_ble_gap_adv_data_set
	.section	.text.sd_ble_gap_adv_start,"ax",%progbits
	.align	1
	.syntax unified
	.thumb
	.thumb_func
	.fpu fpv4-sp-d16
	.type	sd_ble_gap_adv_start, %function
sd_ble_gap_adv_start:
.LFB131:
	.loc 3 1435 1
	@ Naked Function: prologue and epilogue provided by programmer.
	@ args = 0, pretend = 0, frame = 0
	@ frame_needed = 0, uses_anonymous_args = 0
	.loc 3 1435 1
	.syntax unified
@ 1435 "../../../sdk_components/softdevice/s132/headers/ble_gap.h" 1
	svc #115
bx r14
@ 0 "" 2
	.thumb
	.syntax unified
	nop
	mov	r0, r3
.LFE131:
	.size	sd_ble_gap_adv_start, .-sd_ble_gap_adv_start
	.section	.text.sd_ble_gap_adv_stop,"ax",%progbits
	.align	1
	.syntax unified
	.thumb
	.thumb_func
	.fpu fpv4-sp-d16
	.type	sd_ble_gap_adv_stop, %function
sd_ble_gap_adv_stop:
.LFB132:
	.loc 3 1448 1
	@ Naked Function: prologue and epilogue provided by programmer.
	@ args = 0, pretend = 0, frame = 0
	@ frame_needed = 0, uses_anonymous_args = 0
	.loc 3 1448 1
	.syntax unified
@ 1448 "../../../sdk_components/softdevice/s132/headers/ble_gap.h" 1
	svc #116
bx r14
@ 0 "" 2
	.thumb
	.syntax unified
	nop
	mov	r0, r3
.LFE132:
	.size	sd_ble_gap_adv_stop, .-sd_ble_gap_adv_stop
	.section	.text.sd_ble_gap_conn_param_update,"ax",%progbits
	.align	1
	.syntax unified
	.thumb
	.thumb_func
	.fpu fpv4-sp-d16
	.type	sd_ble_gap_conn_param_update, %function
sd_ble_gap_conn_param_update:
.LFB133:
	.loc 3 1486 1
	@ Naked Function: prologue and epilogue provided by programmer.
	@ args = 0, pretend = 0, frame = 0
	@ frame_needed = 0, uses_anonymous_args = 0
	.loc 3 1486 1
	.syntax unified
@ 1486 "../../../sdk_components/softdevice/s132/headers/ble_gap.h" 1
	svc #117
bx r14
@ 0 "" 2
	.thumb
	.syntax unified
	nop
	mov	r0, r3
.LFE133:
	.size	sd_ble_gap_conn_param_update, .-sd_ble_gap_conn_param_update
	.section	.text.sd_ble_gap_disconnect,"ax",%progbits
	.align	1
	.syntax unified
	.thumb
	.thumb_func
	.fpu fpv4-sp-d16
	.type	sd_ble_gap_disconnect, %function
sd_ble_gap_disconnect:
.LFB134:
	.loc 3 1510 1
	@ Naked Function: prologue and epilogue provided by programmer.
	@ args = 0, pretend = 0, frame = 0
	@ frame_needed = 0, uses_anonymous_args = 0
	.loc 3 1510 1
	.syntax unified
@ 1510 "../../../sdk_components/softdevice/s132/headers/ble_gap.h" 1
	svc #118
bx r14
@ 0 "" 2
	.thumb
	.syntax unified
	nop
	mov	r0, r3
.LFE134:
	.size	sd_ble_gap_disconnect, .-sd_ble_gap_disconnect
	.section	.text.sd_ble_gap_tx_power_set,"ax",%progbits
	.align	1
	.syntax unified
	.thumb
	.thumb_func
	.fpu fpv4-sp-d16
	.type	sd_ble_gap_tx_power_set, %function
sd_ble_gap_tx_power_set:
.LFB135:
	.loc 3 1524 1
	@ Naked Function: prologue and epilogue provided by programmer.
	@ args = 0, pretend = 0, frame = 0
	@ frame_needed = 0, uses_anonymous_args = 0
	.loc 3 1524 1
	.syntax unified
@ 1524 "../../../sdk_components/softdevice/s132/headers/ble_gap.h" 1
	svc #119
bx r14
@ 0 "" 2
	.thumb
	.syntax unified
	nop
	mov	r0, r3
.LFE135:
	.size	sd_ble_gap_tx_power_set, .-sd_ble_gap_tx_power_set
	.section	.text.sd_ble_gap_appearance_set,"ax",%progbits
	.align	1
	.syntax unified
	.thumb
	.thumb_func
	.fpu fpv4-sp-d16
	.type	sd_ble_gap_appearance_set, %function
sd_ble_gap_appearance_set:
.LFB136:
	.loc 3 1534 1
	@ Naked Function: prologue and epilogue provided by programmer.
	@ args = 0, pretend = 0, frame = 0
	@ frame_needed = 0, uses_anonymous_args = 0
	.loc 3 1534 1
	.syntax unified
@ 1534 "../../../sdk_components/softdevice/s132/headers/ble_gap.h" 1
	svc #120
bx r14
@ 0 "" 2
	.thumb
	.syntax unified
	nop
	mov	r0, r3
.LFE136:
	.size	sd_ble_gap_appearance_set, .-sd_ble_gap_appearance_set
	.section	.text.sd_ble_gap_appearance_get,"ax",%progbits
	.align	1
	.syntax unified
	.thumb
	.thumb_func
	.fpu fpv4-sp-d16
	.type	sd_ble_gap_appearance_get, %function
sd_ble_gap_appearance_get:
.LFB137:
	.loc 3 1544 1
	@ Naked Function: prologue and epilogue provided by programmer.
	@ args = 0, pretend = 0, frame = 0
	@ frame_needed = 0, uses_anonymous_args = 0
	.loc 3 1544 1
	.syntax unified
@ 1544 "../../../sdk_components/softdevice/s132/headers/ble_gap.h" 1
	svc #121
bx r14
@ 0 "" 2
	.thumb
	.syntax unified
	nop
	mov	r0, r3
.LFE137:
	.size	sd_ble_gap_appearance_get, .-sd_ble_gap_appearance_get
	.section	.text.sd_ble_gap_ppcp_set,"ax",%progbits
	.align	1
	.syntax unified
	.thumb
	.thumb_func
	.fpu fpv4-sp-d16
	.type	sd_ble_gap_ppcp_set, %function
sd_ble_gap_ppcp_set:
.LFB138:
	.loc 3 1555 1
	@ Naked Function: prologue and epilogue provided by programmer.
	@ args = 0, pretend = 0, frame = 0
	@ frame_needed = 0, uses_anonymous_args = 0
	.loc 3 1555 1
	.syntax unified
@ 1555 "../../../sdk_components/softdevice/s132/headers/ble_gap.h" 1
	svc #122
bx r14
@ 0 "" 2
	.thumb
	.syntax unified
	nop
	mov	r0, r3
.LFE138:
	.size	sd_ble_gap_ppcp_set, .-sd_ble_gap_ppcp_set
	.section	.text.sd_ble_gap_ppcp_get,"ax",%progbits
	.align	1
	.syntax unified
	.thumb
	.thumb_func
	.fpu fpv4-sp-d16
	.type	sd_ble_gap_ppcp_get, %function
sd_ble_gap_ppcp_get:
.LFB139:
	.loc 3 1565 1
	@ Naked Function: prologue and epilogue provided by programmer.
	@ args = 0, pretend = 0, frame = 0
	@ frame_needed = 0, uses_anonymous_args = 0
	.loc 3 1565 1
	.syntax unified
@ 1565 "../../../sdk_components/softdevice/s132/headers/ble_gap.h" 1
	svc #123
bx r14
@ 0 "" 2
	.thumb
	.syntax unified
	nop
	mov	r0, r3
.LFE139:
	.size	sd_ble_gap_ppcp_get, .-sd_ble_gap_ppcp_get
	.section	.text.sd_ble_gap_device_name_set,"ax",%progbits
	.align	1
	.syntax unified
	.thumb
	.thumb_func
	.fpu fpv4-sp-d16
	.type	sd_ble_gap_device_name_set, %function
sd_ble_gap_device_name_set:
.LFB140:
	.loc 3 1583 1
	@ Naked Function: prologue and epilogue provided by programmer.
	@ args = 0, pretend = 0, frame = 0
	@ frame_needed = 0, uses_anonymous_args = 0
	.loc 3 1583 1
	.syntax unified
@ 1583 "../../../sdk_components/softdevice/s132/headers/ble_gap.h" 1
	svc #124
bx r14
@ 0 "" 2
	.thumb
	.syntax unified
	nop
	mov	r0, r3
.LFE140:
	.size	sd_ble_gap_device_name_set, .-sd_ble_gap_device_name_set
	.section	.text.sd_ble_gap_device_name_get,"ax",%progbits
	.align	1
	.syntax unified
	.thumb
	.thumb_func
	.fpu fpv4-sp-d16
	.type	sd_ble_gap_device_name_get, %function
sd_ble_gap_device_name_get:
.LFB141:
	.loc 3 1600 1
	@ Naked Function: prologue and epilogue provided by programmer.
	@ args = 0, pretend = 0, frame = 0
	@ frame_needed = 0, uses_anonymous_args = 0
	.loc 3 1600 1
	.syntax unified
@ 1600 "../../../sdk_components/softdevice/s132/headers/ble_gap.h" 1
	svc #125
bx r14
@ 0 "" 2
	.thumb
	.syntax unified
	nop
	mov	r0, r3
.LFE141:
	.size	sd_ble_gap_device_name_get, .-sd_ble_gap_device_name_get
	.section	.text.sd_ble_gap_authenticate,"ax",%progbits
	.align	1
	.syntax unified
	.thumb
	.thumb_func
	.fpu fpv4-sp-d16
	.type	sd_ble_gap_authenticate, %function
sd_ble_gap_authenticate:
.LFB142:
	.loc 3 1651 1
	@ Naked Function: prologue and epilogue provided by programmer.
	@ args = 0, pretend = 0, frame = 0
	@ frame_needed = 0, uses_anonymous_args = 0
	.loc 3 1651 1
	.syntax unified
@ 1651 "../../../sdk_components/softdevice/s132/headers/ble_gap.h" 1
	svc #126
bx r14
@ 0 "" 2
	.thumb
	.syntax unified
	nop
	mov	r0, r3
.LFE142:
	.size	sd_ble_gap_authenticate, .-sd_ble_gap_authenticate
	.section	.text.sd_ble_gap_sec_params_reply,"ax",%progbits
	.align	1
	.syntax unified
	.thumb
	.thumb_func
	.fpu fpv4-sp-d16
	.type	sd_ble_gap_sec_params_reply, %function
sd_ble_gap_sec_params_reply:
.LFB143:
	.loc 3 1709 1
	@ Naked Function: prologue and epilogue provided by programmer.
	@ args = 0, pretend = 0, frame = 0
	@ frame_needed = 0, uses_anonymous_args = 0
	.loc 3 1709 1
	.syntax unified
@ 1709 "../../../sdk_components/softdevice/s132/headers/ble_gap.h" 1
	svc #127
bx r14
@ 0 "" 2
	.thumb
	.syntax unified
	nop
	mov	r0, r3
.LFE143:
	.size	sd_ble_gap_sec_params_reply, .-sd_ble_gap_sec_params_reply
	.section	.text.sd_ble_gap_auth_key_reply,"ax",%progbits
	.align	1
	.syntax unified
	.thumb
	.thumb_func
	.fpu fpv4-sp-d16
	.type	sd_ble_gap_auth_key_reply, %function
sd_ble_gap_auth_key_reply:
.LFB144:
	.loc 3 1743 1
	@ Naked Function: prologue and epilogue provided by programmer.
	@ args = 0, pretend = 0, frame = 0
	@ frame_needed = 0, uses_anonymous_args = 0
	.loc 3 1743 1
	.syntax unified
@ 1743 "../../../sdk_components/softdevice/s132/headers/ble_gap.h" 1
	svc #128
bx r14
@ 0 "" 2
	.thumb
	.syntax unified
	nop
	mov	r0, r3
.LFE144:
	.size	sd_ble_gap_auth_key_reply, .-sd_ble_gap_auth_key_reply
	.section	.text.sd_ble_gap_lesc_dhkey_reply,"ax",%progbits
	.align	1
	.syntax unified
	.thumb
	.thumb_func
	.fpu fpv4-sp-d16
	.type	sd_ble_gap_lesc_dhkey_reply, %function
sd_ble_gap_lesc_dhkey_reply:
.LFB145:
	.loc 3 1776 1
	@ Naked Function: prologue and epilogue provided by programmer.
	@ args = 0, pretend = 0, frame = 0
	@ frame_needed = 0, uses_anonymous_args = 0
	.loc 3 1776 1
	.syntax unified
@ 1776 "../../../sdk_components/softdevice/s132/headers/ble_gap.h" 1
	svc #129
bx r14
@ 0 "" 2
	.thumb
	.syntax unified
	nop
	mov	r0, r3
.LFE145:
	.size	sd_ble_gap_lesc_dhkey_reply, .-sd_ble_gap_lesc_dhkey_reply
	.section	.text.sd_ble_gap_keypress_notify,"ax",%progbits
	.align	1
	.syntax unified
	.thumb
	.thumb_func
	.fpu fpv4-sp-d16
	.type	sd_ble_gap_keypress_notify, %function
sd_ble_gap_keypress_notify:
.LFB146:
	.loc 3 1796 1
	@ Naked Function: prologue and epilogue provided by programmer.
	@ args = 0, pretend = 0, frame = 0
	@ frame_needed = 0, uses_anonymous_args = 0
	.loc 3 1796 1
	.syntax unified
@ 1796 "../../../sdk_components/softdevice/s132/headers/ble_gap.h" 1
	svc #130
bx r14
@ 0 "" 2
	.thumb
	.syntax unified
	nop
	mov	r0, r3
.LFE146:
	.size	sd_ble_gap_keypress_notify, .-sd_ble_gap_keypress_notify
	.section	.text.sd_ble_gap_lesc_oob_data_get,"ax",%progbits
	.align	1
	.syntax unified
	.thumb
	.thumb_func
	.fpu fpv4-sp-d16
	.type	sd_ble_gap_lesc_oob_data_get, %function
sd_ble_gap_lesc_oob_data_get:
.LFB147:
	.loc 3 1816 1
	@ Naked Function: prologue and epilogue provided by programmer.
	@ args = 0, pretend = 0, frame = 0
	@ frame_needed = 0, uses_anonymous_args = 0
	.loc 3 1816 1
	.syntax unified
@ 1816 "../../../sdk_components/softdevice/s132/headers/ble_gap.h" 1
	svc #131
bx r14
@ 0 "" 2
	.thumb
	.syntax unified
	nop
	mov	r0, r3
.LFE147:
	.size	sd_ble_gap_lesc_oob_data_get, .-sd_ble_gap_lesc_oob_data_get
	.section	.text.sd_ble_gap_lesc_oob_data_set,"ax",%progbits
	.align	1
	.syntax unified
	.thumb
	.thumb_func
	.fpu fpv4-sp-d16
	.type	sd_ble_gap_lesc_oob_data_set, %function
sd_ble_gap_lesc_oob_data_set:
.LFB148:
	.loc 3 1844 1
	@ Naked Function: prologue and epilogue provided by programmer.
	@ args = 0, pretend = 0, frame = 0
	@ frame_needed = 0, uses_anonymous_args = 0
	.loc 3 1844 1
	.syntax unified
@ 1844 "../../../sdk_components/softdevice/s132/headers/ble_gap.h" 1
	svc #132
bx r14
@ 0 "" 2
	.thumb
	.syntax unified
	nop
	mov	r0, r3
.LFE148:
	.size	sd_ble_gap_lesc_oob_data_set, .-sd_ble_gap_lesc_oob_data_set
	.section	.text.sd_ble_gap_encrypt,"ax",%progbits
	.align	1
	.syntax unified
	.thumb
	.thumb_func
	.fpu fpv4-sp-d16
	.type	sd_ble_gap_encrypt, %function
sd_ble_gap_encrypt:
.LFB149:
	.loc 3 1872 1
	@ Naked Function: prologue and epilogue provided by programmer.
	@ args = 0, pretend = 0, frame = 0
	@ frame_needed = 0, uses_anonymous_args = 0
	.loc 3 1872 1
	.syntax unified
@ 1872 "../../../sdk_components/softdevice/s132/headers/ble_gap.h" 1
	svc #133
bx r14
@ 0 "" 2
	.thumb
	.syntax unified
	nop
	mov	r0, r3
.LFE149:
	.size	sd_ble_gap_encrypt, .-sd_ble_gap_encrypt
	.section	.text.sd_ble_gap_sec_info_reply,"ax",%progbits
	.align	1
	.syntax unified
	.thumb
	.thumb_func
	.fpu fpv4-sp-d16
	.type	sd_ble_gap_sec_info_reply, %function
sd_ble_gap_sec_info_reply:
.LFB150:
	.loc 3 1895 1
	@ Naked Function: prologue and epilogue provided by programmer.
	@ args = 0, pretend = 0, frame = 0
	@ frame_needed = 0, uses_anonymous_args = 0
	.loc 3 1895 1
	.syntax unified
@ 1895 "../../../sdk_components/softdevice/s132/headers/ble_gap.h" 1
	svc #134
bx r14
@ 0 "" 2
	.thumb
	.syntax unified
	nop
	mov	r0, r3
.LFE150:
	.size	sd_ble_gap_sec_info_reply, .-sd_ble_gap_sec_info_reply
	.section	.text.sd_ble_gap_conn_sec_get,"ax",%progbits
	.align	1
	.syntax unified
	.thumb
	.thumb_func
	.fpu fpv4-sp-d16
	.type	sd_ble_gap_conn_sec_get, %function
sd_ble_gap_conn_sec_get:
.LFB151:
	.loc 3 1907 1
	@ Naked Function: prologue and epilogue provided by programmer.
	@ args = 0, pretend = 0, frame = 0
	@ frame_needed = 0, uses_anonymous_args = 0
	.loc 3 1907 1
	.syntax unified
@ 1907 "../../../sdk_components/softdevice/s132/headers/ble_gap.h" 1
	svc #135
bx r14
@ 0 "" 2
	.thumb
	.syntax unified
	nop
	mov	r0, r3
.LFE151:
	.size	sd_ble_gap_conn_sec_get, .-sd_ble_gap_conn_sec_get
	.section	.text.sd_ble_gap_rssi_start,"ax",%progbits
	.align	1
	.syntax unified
	.thumb
	.thumb_func
	.fpu fpv4-sp-d16
	.type	sd_ble_gap_rssi_start, %function
sd_ble_gap_rssi_start:
.LFB152:
	.loc 3 1933 1
	@ Naked Function: prologue and epilogue provided by programmer.
	@ args = 0, pretend = 0, frame = 0
	@ frame_needed = 0, uses_anonymous_args = 0
	.loc 3 1933 1
	.syntax unified
@ 1933 "../../../sdk_components/softdevice/s132/headers/ble_gap.h" 1
	svc #136
bx r14
@ 0 "" 2
	.thumb
	.syntax unified
	nop
	mov	r0, r3
.LFE152:
	.size	sd_ble_gap_rssi_start, .-sd_ble_gap_rssi_start
	.section	.text.sd_ble_gap_rssi_stop,"ax",%progbits
	.align	1
	.syntax unified
	.thumb
	.thumb_func
	.fpu fpv4-sp-d16
	.type	sd_ble_gap_rssi_stop, %function
sd_ble_gap_rssi_stop:
.LFB153:
	.loc 3 1952 1
	@ Naked Function: prologue and epilogue provided by programmer.
	@ args = 0, pretend = 0, frame = 0
	@ frame_needed = 0, uses_anonymous_args = 0
	.loc 3 1952 1
	.syntax unified
@ 1952 "../../../sdk_components/softdevice/s132/headers/ble_gap.h" 1
	svc #137
bx r14
@ 0 "" 2
	.thumb
	.syntax unified
	nop
	mov	r0, r3
.LFE153:
	.size	sd_ble_gap_rssi_stop, .-sd_ble_gap_rssi_stop
	.section	.text.sd_ble_gap_rssi_get,"ax",%progbits
	.align	1
	.syntax unified
	.thumb
	.thumb_func
	.fpu fpv4-sp-d16
	.type	sd_ble_gap_rssi_get, %function
sd_ble_gap_rssi_get:
.LFB154:
	.loc 3 1973 1
	@ Naked Function: prologue and epilogue provided by programmer.
	@ args = 0, pretend = 0, frame = 0
	@ frame_needed = 0, uses_anonymous_args = 0
	.loc 3 1973 1
	.syntax unified
@ 1973 "../../../sdk_components/softdevice/s132/headers/ble_gap.h" 1
	svc #142
bx r14
@ 0 "" 2
	.thumb
	.syntax unified
	nop
	mov	r0, r3
.LFE154:
	.size	sd_ble_gap_rssi_get, .-sd_ble_gap_rssi_get
	.section	.text.sd_ble_gap_scan_start,"ax",%progbits
	.align	1
	.syntax unified
	.thumb
	.thumb_func
	.fpu fpv4-sp-d16
	.type	sd_ble_gap_scan_start, %function
sd_ble_gap_scan_start:
.LFB155:
	.loc 3 1998 1
	@ Naked Function: prologue and epilogue provided by programmer.
	@ args = 0, pretend = 0, frame = 0
	@ frame_needed = 0, uses_anonymous_args = 0
	.loc 3 1998 1
	.syntax unified
@ 1998 "../../../sdk_components/softdevice/s132/headers/ble_gap.h" 1
	svc #138
bx r14
@ 0 "" 2
	.thumb
	.syntax unified
	nop
	mov	r0, r3
.LFE155:
	.size	sd_ble_gap_scan_start, .-sd_ble_gap_scan_start
	.section	.text.sd_ble_gap_scan_stop,"ax",%progbits
	.align	1
	.syntax unified
	.thumb
	.thumb_func
	.fpu fpv4-sp-d16
	.type	sd_ble_gap_scan_stop, %function
sd_ble_gap_scan_stop:
.LFB156:
	.loc 3 2011 1
	@ Naked Function: prologue and epilogue provided by programmer.
	@ args = 0, pretend = 0, frame = 0
	@ frame_needed = 0, uses_anonymous_args = 0
	.loc 3 2011 1
	.syntax unified
@ 2011 "../../../sdk_components/softdevice/s132/headers/ble_gap.h" 1
	svc #139
bx r14
@ 0 "" 2
	.thumb
	.syntax unified
	nop
	mov	r0, r3
.LFE156:
	.size	sd_ble_gap_scan_stop, .-sd_ble_gap_scan_stop
	.section	.text.sd_ble_gap_connect,"ax",%progbits
	.align	1
	.syntax unified
	.thumb
	.thumb_func
	.fpu fpv4-sp-d16
	.type	sd_ble_gap_connect, %function
sd_ble_gap_connect:
.LFB157:
	.loc 3 2048 1
	@ Naked Function: prologue and epilogue provided by programmer.
	@ args = 0, pretend = 0, frame = 0
	@ frame_needed = 0, uses_anonymous_args = 0
	.loc 3 2048 1
	.syntax unified
@ 2048 "../../../sdk_components/softdevice/s132/headers/ble_gap.h" 1
	svc #140
bx r14
@ 0 "" 2
	.thumb
	.syntax unified
	nop
	mov	r0, r3
.LFE157:
	.size	sd_ble_gap_connect, .-sd_ble_gap_connect
	.section	.text.sd_ble_gap_connect_cancel,"ax",%progbits
	.align	1
	.syntax unified
	.thumb
	.thumb_func
	.fpu fpv4-sp-d16
	.type	sd_ble_gap_connect_cancel, %function
sd_ble_gap_connect_cancel:
.LFB158:
	.loc 3 2060 1
	@ Naked Function: prologue and epilogue provided by programmer.
	@ args = 0, pretend = 0, frame = 0
	@ frame_needed = 0, uses_anonymous_args = 0
	.loc 3 2060 1
	.syntax unified
@ 2060 "../../../sdk_components/softdevice/s132/headers/ble_gap.h" 1
	svc #141
bx r14
@ 0 "" 2
	.thumb
	.syntax unified
	nop
	mov	r0, r3
.LFE158:
	.size	sd_ble_gap_connect_cancel, .-sd_ble_gap_connect_cancel
	.section	.text.sd_ble_gap_data_length_update,"ax",%progbits
	.align	1
	.syntax unified
	.thumb
	.thumb_func
	.fpu fpv4-sp-d16
	.type	sd_ble_gap_data_length_update, %function
sd_ble_gap_data_length_update:
.LFB159:
	.loc 3 2096 1
	@ Naked Function: prologue and epilogue provided by programmer.
	@ args = 0, pretend = 0, frame = 0
	@ frame_needed = 0, uses_anonymous_args = 0
	.loc 3 2096 1
	.syntax unified
@ 2096 "../../../sdk_components/softdevice/s132/headers/ble_gap.h" 1
	svc #143
bx r14
@ 0 "" 2
	.thumb
	.syntax unified
	nop
	mov	r0, r3
.LFE159:
	.size	sd_ble_gap_data_length_update, .-sd_ble_gap_data_length_update
	.section	.text.sd_ble_gattc_primary_services_discover,"ax",%progbits
	.align	1
	.syntax unified
	.thumb
	.thumb_func
	.fpu fpv4-sp-d16
	.type	sd_ble_gattc_primary_services_discover, %function
sd_ble_gattc_primary_services_discover:
.LFB160:
	.file 4 "../../../sdk_components/softdevice/s132/headers/ble_gattc.h"
	.loc 4 374 1
	@ Naked Function: prologue and epilogue provided by programmer.
	@ args = 0, pretend = 0, frame = 0
	@ frame_needed = 0, uses_anonymous_args = 0
	.loc 4 374 1
	.syntax unified
@ 374 "../../../sdk_components/softdevice/s132/headers/ble_gattc.h" 1
	svc #148
bx r14
@ 0 "" 2
	.thumb
	.syntax unified
	nop
	mov	r0, r3
.LFE160:
	.size	sd_ble_gattc_primary_services_discover, .-sd_ble_gattc_primary_services_discover
	.section	.text.sd_ble_gattc_relationships_discover,"ax",%progbits
	.align	1
	.syntax unified
	.thumb
	.thumb_func
	.fpu fpv4-sp-d16
	.type	sd_ble_gattc_relationships_discover, %function
sd_ble_gattc_relationships_discover:
.LFB161:
	.loc 4 400 1
	@ Naked Function: prologue and epilogue provided by programmer.
	@ args = 0, pretend = 0, frame = 0
	@ frame_needed = 0, uses_anonymous_args = 0
	.loc 4 400 1
	.syntax unified
@ 400 "../../../sdk_components/softdevice/s132/headers/ble_gattc.h" 1
	svc #149
bx r14
@ 0 "" 2
	.thumb
	.syntax unified
	nop
	mov	r0, r3
.LFE161:
	.size	sd_ble_gattc_relationships_discover, .-sd_ble_gattc_relationships_discover
	.section	.text.sd_ble_gattc_characteristics_discover,"ax",%progbits
	.align	1
	.syntax unified
	.thumb
	.thumb_func
	.fpu fpv4-sp-d16
	.type	sd_ble_gattc_characteristics_discover, %function
sd_ble_gattc_characteristics_discover:
.LFB162:
	.loc 4 428 1
	@ Naked Function: prologue and epilogue provided by programmer.
	@ args = 0, pretend = 0, frame = 0
	@ frame_needed = 0, uses_anonymous_args = 0
	.loc 4 428 1
	.syntax unified
@ 428 "../../../sdk_components/softdevice/s132/headers/ble_gattc.h" 1
	svc #150
bx r14
@ 0 "" 2
	.thumb
	.syntax unified
	nop
	mov	r0, r3
.LFE162:
	.size	sd_ble_gattc_characteristics_discover, .-sd_ble_gattc_characteristics_discover
	.section	.text.sd_ble_gattc_descriptors_discover,"ax",%progbits
	.align	1
	.syntax unified
	.thumb
	.thumb_func
	.fpu fpv4-sp-d16
	.type	sd_ble_gattc_descriptors_discover, %function
sd_ble_gattc_descriptors_discover:
.LFB163:
	.loc 4 453 1
	@ Naked Function: prologue and epilogue provided by programmer.
	@ args = 0, pretend = 0, frame = 0
	@ frame_needed = 0, uses_anonymous_args = 0
	.loc 4 453 1
	.syntax unified
@ 453 "../../../sdk_components/softdevice/s132/headers/ble_gattc.h" 1
	svc #151
bx r14
@ 0 "" 2
	.thumb
	.syntax unified
	nop
	mov	r0, r3
.LFE163:
	.size	sd_ble_gattc_descriptors_discover, .-sd_ble_gattc_descriptors_discover
	.section	.text.sd_ble_gattc_char_value_by_uuid_read,"ax",%progbits
	.align	1
	.syntax unified
	.thumb
	.thumb_func
	.fpu fpv4-sp-d16
	.type	sd_ble_gattc_char_value_by_uuid_read, %function
sd_ble_gattc_char_value_by_uuid_read:
.LFB164:
	.loc 4 479 1
	@ Naked Function: prologue and epilogue provided by programmer.
	@ args = 0, pretend = 0, frame = 0
	@ frame_needed = 0, uses_anonymous_args = 0
	.loc 4 479 1
	.syntax unified
@ 479 "../../../sdk_components/softdevice/s132/headers/ble_gattc.h" 1
	svc #153
bx r14
@ 0 "" 2
	.thumb
	.syntax unified
	nop
	mov	r0, r3
.LFE164:
	.size	sd_ble_gattc_char_value_by_uuid_read, .-sd_ble_gattc_char_value_by_uuid_read
	.section	.text.sd_ble_gattc_read,"ax",%progbits
	.align	1
	.syntax unified
	.thumb
	.thumb_func
	.fpu fpv4-sp-d16
	.type	sd_ble_gattc_read, %function
sd_ble_gattc_read:
.LFB165:
	.loc 4 505 1
	@ Naked Function: prologue and epilogue provided by programmer.
	@ args = 0, pretend = 0, frame = 0
	@ frame_needed = 0, uses_anonymous_args = 0
	.loc 4 505 1
	.syntax unified
@ 505 "../../../sdk_components/softdevice/s132/headers/ble_gattc.h" 1
	svc #154
bx r14
@ 0 "" 2
	.thumb
	.syntax unified
	nop
	mov	r0, r3
.LFE165:
	.size	sd_ble_gattc_read, .-sd_ble_gattc_read
	.section	.text.sd_ble_gattc_char_values_read,"ax",%progbits
	.align	1
	.syntax unified
	.thumb
	.thumb_func
	.fpu fpv4-sp-d16
	.type	sd_ble_gattc_char_values_read, %function
sd_ble_gattc_char_values_read:
.LFB166:
	.loc 4 530 1
	@ Naked Function: prologue and epilogue provided by programmer.
	@ args = 0, pretend = 0, frame = 0
	@ frame_needed = 0, uses_anonymous_args = 0
	.loc 4 530 1
	.syntax unified
@ 530 "../../../sdk_components/softdevice/s132/headers/ble_gattc.h" 1
	svc #155
bx r14
@ 0 "" 2
	.thumb
	.syntax unified
	nop
	mov	r0, r3
.LFE166:
	.size	sd_ble_gattc_char_values_read, .-sd_ble_gattc_char_values_read
	.section	.text.sd_ble_gattc_write,"ax",%progbits
	.align	1
	.syntax unified
	.thumb
	.thumb_func
	.fpu fpv4-sp-d16
	.type	sd_ble_gattc_write, %function
sd_ble_gattc_write:
.LFB167:
	.loc 4 576 1
	@ Naked Function: prologue and epilogue provided by programmer.
	@ args = 0, pretend = 0, frame = 0
	@ frame_needed = 0, uses_anonymous_args = 0
	.loc 4 576 1
	.syntax unified
@ 576 "../../../sdk_components/softdevice/s132/headers/ble_gattc.h" 1
	svc #156
bx r14
@ 0 "" 2
	.thumb
	.syntax unified
	nop
	mov	r0, r3
.LFE167:
	.size	sd_ble_gattc_write, .-sd_ble_gattc_write
	.section	.text.sd_ble_gattc_hv_confirm,"ax",%progbits
	.align	1
	.syntax unified
	.thumb
	.thumb_func
	.fpu fpv4-sp-d16
	.type	sd_ble_gattc_hv_confirm, %function
sd_ble_gattc_hv_confirm:
.LFB168:
	.loc 4 593 1
	@ Naked Function: prologue and epilogue provided by programmer.
	@ args = 0, pretend = 0, frame = 0
	@ frame_needed = 0, uses_anonymous_args = 0
	.loc 4 593 1
	.syntax unified
@ 593 "../../../sdk_components/softdevice/s132/headers/ble_gattc.h" 1
	svc #157
bx r14
@ 0 "" 2
	.thumb
	.syntax unified
	nop
	mov	r0, r3
.LFE168:
	.size	sd_ble_gattc_hv_confirm, .-sd_ble_gattc_hv_confirm
	.section	.text.sd_ble_gattc_attr_info_discover,"ax",%progbits
	.align	1
	.syntax unified
	.thumb
	.thumb_func
	.fpu fpv4-sp-d16
	.type	sd_ble_gattc_attr_info_discover, %function
sd_ble_gattc_attr_info_discover:
.LFB169:
	.loc 4 610 1
	@ Naked Function: prologue and epilogue provided by programmer.
	@ args = 0, pretend = 0, frame = 0
	@ frame_needed = 0, uses_anonymous_args = 0
	.loc 4 610 1
	.syntax unified
@ 610 "../../../sdk_components/softdevice/s132/headers/ble_gattc.h" 1
	svc #152
bx r14
@ 0 "" 2
	.thumb
	.syntax unified
	nop
	mov	r0, r3
.LFE169:
	.size	sd_ble_gattc_attr_info_discover, .-sd_ble_gattc_attr_info_discover
	.section	.text.sd_ble_gattc_exchange_mtu_request,"ax",%progbits
	.align	1
	.syntax unified
	.thumb
	.thumb_func
	.fpu fpv4-sp-d16
	.type	sd_ble_gattc_exchange_mtu_request, %function
sd_ble_gattc_exchange_mtu_request:
.LFB170:
	.loc 4 642 1
	@ Naked Function: prologue and epilogue provided by programmer.
	@ args = 0, pretend = 0, frame = 0
	@ frame_needed = 0, uses_anonymous_args = 0
	.loc 4 642 1
	.syntax unified
@ 642 "../../../sdk_components/softdevice/s132/headers/ble_gattc.h" 1
	svc #158
bx r14
@ 0 "" 2
	.thumb
	.syntax unified
	nop
	mov	r0, r3
.LFE170:
	.size	sd_ble_gattc_exchange_mtu_request, .-sd_ble_gattc_exchange_mtu_request
	.section	.text.sd_ble_gatts_service_add,"ax",%progbits
	.align	1
	.syntax unified
	.thumb
	.thumb_func
	.fpu fpv4-sp-d16
	.type	sd_ble_gatts_service_add, %function
sd_ble_gatts_service_add:
.LFB172:
	.file 5 "../../../sdk_components/softdevice/s132/headers/ble_gatts.h"
	.loc 5 441 1
	@ Naked Function: prologue and epilogue provided by programmer.
	@ args = 0, pretend = 0, frame = 0
	@ frame_needed = 0, uses_anonymous_args = 0
	.loc 5 441 1
	.syntax unified
@ 441 "../../../sdk_components/softdevice/s132/headers/ble_gatts.h" 1
	svc #160
bx r14
@ 0 "" 2
	.thumb
	.syntax unified
	nop
	mov	r0, r3
.LFE172:
	.size	sd_ble_gatts_service_add, .-sd_ble_gatts_service_add
	.section	.text.sd_ble_gatts_include_add,"ax",%progbits
	.align	1
	.syntax unified
	.thumb
	.thumb_func
	.fpu fpv4-sp-d16
	.type	sd_ble_gatts_include_add, %function
sd_ble_gatts_include_add:
.LFB173:
	.loc 5 467 1
	@ Naked Function: prologue and epilogue provided by programmer.
	@ args = 0, pretend = 0, frame = 0
	@ frame_needed = 0, uses_anonymous_args = 0
	.loc 5 467 1
	.syntax unified
@ 467 "../../../sdk_components/softdevice/s132/headers/ble_gatts.h" 1
	svc #161
bx r14
@ 0 "" 2
	.thumb
	.syntax unified
	nop
	mov	r0, r3
.LFE173:
	.size	sd_ble_gatts_include_add, .-sd_ble_gatts_include_add
	.section	.text.sd_ble_gatts_characteristic_add,"ax",%progbits
	.align	1
	.syntax unified
	.thumb
	.thumb_func
	.fpu fpv4-sp-d16
	.type	sd_ble_gatts_characteristic_add, %function
sd_ble_gatts_characteristic_add:
.LFB174:
	.loc 5 496 1
	@ Naked Function: prologue and epilogue provided by programmer.
	@ args = 0, pretend = 0, frame = 0
	@ frame_needed = 0, uses_anonymous_args = 0
	.loc 5 496 1
	.syntax unified
@ 496 "../../../sdk_components/softdevice/s132/headers/ble_gatts.h" 1
	svc #162
bx r14
@ 0 "" 2
	.thumb
	.syntax unified
	nop
	mov	r0, r3
.LFE174:
	.size	sd_ble_gatts_characteristic_add, .-sd_ble_gatts_characteristic_add
	.section	.text.sd_ble_gatts_descriptor_add,"ax",%progbits
	.align	1
	.syntax unified
	.thumb
	.thumb_func
	.fpu fpv4-sp-d16
	.type	sd_ble_gatts_descriptor_add, %function
sd_ble_gatts_descriptor_add:
.LFB175:
	.loc 5 519 1
	@ Naked Function: prologue and epilogue provided by programmer.
	@ args = 0, pretend = 0, frame = 0
	@ frame_needed = 0, uses_anonymous_args = 0
	.loc 5 519 1
	.syntax unified
@ 519 "../../../sdk_components/softdevice/s132/headers/ble_gatts.h" 1
	svc #163
bx r14
@ 0 "" 2
	.thumb
	.syntax unified
	nop
	mov	r0, r3
.LFE175:
	.size	sd_ble_gatts_descriptor_add, .-sd_ble_gatts_descriptor_add
	.section	.text.sd_ble_gatts_value_set,"ax",%progbits
	.align	1
	.syntax unified
	.thumb
	.thumb_func
	.fpu fpv4-sp-d16
	.type	sd_ble_gatts_value_set, %function
sd_ble_gatts_value_set:
.LFB176:
	.loc 5 542 1
	@ Naked Function: prologue and epilogue provided by programmer.
	@ args = 0, pretend = 0, frame = 0
	@ frame_needed = 0, uses_anonymous_args = 0
	.loc 5 542 1
	.syntax unified
@ 542 "../../../sdk_components/softdevice/s132/headers/ble_gatts.h" 1
	svc #164
bx r14
@ 0 "" 2
	.thumb
	.syntax unified
	nop
	mov	r0, r3
.LFE176:
	.size	sd_ble_gatts_value_set, .-sd_ble_gatts_value_set
	.section	.text.sd_ble_gatts_value_get,"ax",%progbits
	.align	1
	.syntax unified
	.thumb
	.thumb_func
	.fpu fpv4-sp-d16
	.type	sd_ble_gatts_value_get, %function
sd_ble_gatts_value_get:
.LFB177:
	.loc 5 566 1
	@ Naked Function: prologue and epilogue provided by programmer.
	@ args = 0, pretend = 0, frame = 0
	@ frame_needed = 0, uses_anonymous_args = 0
	.loc 5 566 1
	.syntax unified
@ 566 "../../../sdk_components/softdevice/s132/headers/ble_gatts.h" 1
	svc #165
bx r14
@ 0 "" 2
	.thumb
	.syntax unified
	nop
	mov	r0, r3
.LFE177:
	.size	sd_ble_gatts_value_get, .-sd_ble_gatts_value_get
	.section	.text.sd_ble_gatts_hvx,"ax",%progbits
	.align	1
	.syntax unified
	.thumb
	.thumb_func
	.fpu fpv4-sp-d16
	.type	sd_ble_gatts_hvx, %function
sd_ble_gatts_hvx:
.LFB178:
	.loc 5 627 1
	@ Naked Function: prologue and epilogue provided by programmer.
	@ args = 0, pretend = 0, frame = 0
	@ frame_needed = 0, uses_anonymous_args = 0
	.loc 5 627 1
	.syntax unified
@ 627 "../../../sdk_components/softdevice/s132/headers/ble_gatts.h" 1
	svc #166
bx r14
@ 0 "" 2
	.thumb
	.syntax unified
	nop
	mov	r0, r3
.LFE178:
	.size	sd_ble_gatts_hvx, .-sd_ble_gatts_hvx
	.section	.text.sd_ble_gatts_service_changed,"ax",%progbits
	.align	1
	.syntax unified
	.thumb
	.thumb_func
	.fpu fpv4-sp-d16
	.type	sd_ble_gatts_service_changed, %function
sd_ble_gatts_service_changed:
.LFB179:
	.loc 5 662 1
	@ Naked Function: prologue and epilogue provided by programmer.
	@ args = 0, pretend = 0, frame = 0
	@ frame_needed = 0, uses_anonymous_args = 0
	.loc 5 662 1
	.syntax unified
@ 662 "../../../sdk_components/softdevice/s132/headers/ble_gatts.h" 1
	svc #167
bx r14
@ 0 "" 2
	.thumb
	.syntax unified
	nop
	mov	r0, r3
.LFE179:
	.size	sd_ble_gatts_service_changed, .-sd_ble_gatts_service_changed
	.section	.text.sd_ble_gatts_rw_authorize_reply,"ax",%progbits
	.align	1
	.syntax unified
	.thumb
	.thumb_func
	.fpu fpv4-sp-d16
	.type	sd_ble_gatts_rw_authorize_reply, %function
sd_ble_gatts_rw_authorize_reply:
.LFB180:
	.loc 5 693 1
	@ Naked Function: prologue and epilogue provided by programmer.
	@ args = 0, pretend = 0, frame = 0
	@ frame_needed = 0, uses_anonymous_args = 0
	.loc 5 693 1
	.syntax unified
@ 693 "../../../sdk_components/softdevice/s132/headers/ble_gatts.h" 1
	svc #168
bx r14
@ 0 "" 2
	.thumb
	.syntax unified
	nop
	mov	r0, r3
.LFE180:
	.size	sd_ble_gatts_rw_authorize_reply, .-sd_ble_gatts_rw_authorize_reply
	.section	.text.sd_ble_gatts_sys_attr_set,"ax",%progbits
	.align	1
	.syntax unified
	.thumb
	.thumb_func
	.fpu fpv4-sp-d16
	.type	sd_ble_gatts_sys_attr_set, %function
sd_ble_gatts_sys_attr_set:
.LFB181:
	.loc 5 737 1
	@ Naked Function: prologue and epilogue provided by programmer.
	@ args = 0, pretend = 0, frame = 0
	@ frame_needed = 0, uses_anonymous_args = 0
	.loc 5 737 1
	.syntax unified
@ 737 "../../../sdk_components/softdevice/s132/headers/ble_gatts.h" 1
	svc #169
bx r14
@ 0 "" 2
	.thumb
	.syntax unified
	nop
	mov	r0, r3
.LFE181:
	.size	sd_ble_gatts_sys_attr_set, .-sd_ble_gatts_sys_attr_set
	.section	.text.sd_ble_gatts_sys_attr_get,"ax",%progbits
	.align	1
	.syntax unified
	.thumb
	.thumb_func
	.fpu fpv4-sp-d16
	.type	sd_ble_gatts_sys_attr_get, %function
sd_ble_gatts_sys_attr_get:
.LFB182:
	.loc 5 770 1
	@ Naked Function: prologue and epilogue provided by programmer.
	@ args = 0, pretend = 0, frame = 0
	@ frame_needed = 0, uses_anonymous_args = 0
	.loc 5 770 1
	.syntax unified
@ 770 "../../../sdk_components/softdevice/s132/headers/ble_gatts.h" 1
	svc #170
bx r14
@ 0 "" 2
	.thumb
	.syntax unified
	nop
	mov	r0, r3
.LFE182:
	.size	sd_ble_gatts_sys_attr_get, .-sd_ble_gatts_sys_attr_get
	.section	.text.sd_ble_gatts_initial_user_handle_get,"ax",%progbits
	.align	1
	.syntax unified
	.thumb
	.thumb_func
	.fpu fpv4-sp-d16
	.type	sd_ble_gatts_initial_user_handle_get, %function
sd_ble_gatts_initial_user_handle_get:
.LFB183:
	.loc 5 780 1
	@ Naked Function: prologue and epilogue provided by programmer.
	@ args = 0, pretend = 0, frame = 0
	@ frame_needed = 0, uses_anonymous_args = 0
	.loc 5 780 1
	.syntax unified
@ 780 "../../../sdk_components/softdevice/s132/headers/ble_gatts.h" 1
	svc #171
bx r14
@ 0 "" 2
	.thumb
	.syntax unified
	nop
	mov	r0, r3
.LFE183:
	.size	sd_ble_gatts_initial_user_handle_get, .-sd_ble_gatts_initial_user_handle_get
	.section	.text.sd_ble_gatts_attr_get,"ax",%progbits
	.align	1
	.syntax unified
	.thumb
	.thumb_func
	.fpu fpv4-sp-d16
	.type	sd_ble_gatts_attr_get, %function
sd_ble_gatts_attr_get:
.LFB184:
	.loc 5 793 1
	@ Naked Function: prologue and epilogue provided by programmer.
	@ args = 0, pretend = 0, frame = 0
	@ frame_needed = 0, uses_anonymous_args = 0
	.loc 5 793 1
	.syntax unified
@ 793 "../../../sdk_components/softdevice/s132/headers/ble_gatts.h" 1
	svc #172
bx r14
@ 0 "" 2
	.thumb
	.syntax unified
	nop
	mov	r0, r3
.LFE184:
	.size	sd_ble_gatts_attr_get, .-sd_ble_gatts_attr_get
	.section	.text.sd_ble_gatts_exchange_mtu_reply,"ax",%progbits
	.align	1
	.syntax unified
	.thumb
	.thumb_func
	.fpu fpv4-sp-d16
	.type	sd_ble_gatts_exchange_mtu_reply, %function
sd_ble_gatts_exchange_mtu_reply:
.LFB185:
	.loc 5 822 1
	@ Naked Function: prologue and epilogue provided by programmer.
	@ args = 0, pretend = 0, frame = 0
	@ frame_needed = 0, uses_anonymous_args = 0
	.loc 5 822 1
	.syntax unified
@ 822 "../../../sdk_components/softdevice/s132/headers/ble_gatts.h" 1
	svc #173
bx r14
@ 0 "" 2
	.thumb
	.syntax unified
	nop
	mov	r0, r3
.LFE185:
	.size	sd_ble_gatts_exchange_mtu_reply, .-sd_ble_gatts_exchange_mtu_reply
	.section	.text.sd_ble_enable,"ax",%progbits
	.align	1
	.syntax unified
	.thumb
	.thumb_func
	.fpu fpv4-sp-d16
	.type	sd_ble_enable, %function
sd_ble_enable:
.LFB186:
	.file 6 "../../../sdk_components/softdevice/s132/headers/ble.h"
	.loc 6 388 1
	@ Naked Function: prologue and epilogue provided by programmer.
	@ args = 0, pretend = 0, frame = 0
	@ frame_needed = 0, uses_anonymous_args = 0
	.loc 6 388 1
	.syntax unified
@ 388 "../../../sdk_components/softdevice/s132/headers/ble.h" 1
	svc #96
bx r14
@ 0 "" 2
	.thumb
	.syntax unified
	nop
	mov	r0, r3
.LFE186:
	.size	sd_ble_enable, .-sd_ble_enable
	.section	.text.sd_ble_cfg_set,"ax",%progbits
	.align	1
	.syntax unified
	.thumb
	.thumb_func
	.fpu fpv4-sp-d16
	.type	sd_ble_cfg_set, %function
sd_ble_cfg_set:
.LFB187:
	.loc 6 424 1
	@ Naked Function: prologue and epilogue provided by programmer.
	@ args = 0, pretend = 0, frame = 0
	@ frame_needed = 0, uses_anonymous_args = 0
	.loc 6 424 1
	.syntax unified
@ 424 "../../../sdk_components/softdevice/s132/headers/ble.h" 1
	svc #105
bx r14
@ 0 "" 2
	.thumb
	.syntax unified
	nop
	mov	r0, r3
.LFE187:
	.size	sd_ble_cfg_set, .-sd_ble_cfg_set
	.section	.text.sd_ble_evt_get,"ax",%progbits
	.align	1
	.syntax unified
	.thumb
	.thumb_func
	.fpu fpv4-sp-d16
	.type	sd_ble_evt_get, %function
sd_ble_evt_get:
.LFB188:
	.loc 6 462 1
	@ Naked Function: prologue and epilogue provided by programmer.
	@ args = 0, pretend = 0, frame = 0
	@ frame_needed = 0, uses_anonymous_args = 0
	.loc 6 462 1
	.syntax unified
@ 462 "../../../sdk_components/softdevice/s132/headers/ble.h" 1
	svc #97
bx r14
@ 0 "" 2
	.thumb
	.syntax unified
	nop
	mov	r0, r3
.LFE188:
	.size	sd_ble_evt_get, .-sd_ble_evt_get
	.section	.text.sd_ble_uuid_vs_add,"ax",%progbits
	.align	1
	.syntax unified
	.thumb
	.thumb_func
	.fpu fpv4-sp-d16
	.type	sd_ble_uuid_vs_add, %function
sd_ble_uuid_vs_add:
.LFB189:
	.loc 6 491 1
	@ Naked Function: prologue and epilogue provided by programmer.
	@ args = 0, pretend = 0, frame = 0
	@ frame_needed = 0, uses_anonymous_args = 0
	.loc 6 491 1
	.syntax unified
@ 491 "../../../sdk_components/softdevice/s132/headers/ble.h" 1
	svc #98
bx r14
@ 0 "" 2
	.thumb
	.syntax unified
	nop
	mov	r0, r3
.LFE189:
	.size	sd_ble_uuid_vs_add, .-sd_ble_uuid_vs_add
	.section	.text.sd_ble_uuid_decode,"ax",%progbits
	.align	1
	.syntax unified
	.thumb
	.thumb_func
	.fpu fpv4-sp-d16
	.type	sd_ble_uuid_decode, %function
sd_ble_uuid_decode:
.LFB190:
	.loc 6 512 1
	@ Naked Function: prologue and epilogue provided by programmer.
	@ args = 0, pretend = 0, frame = 0
	@ frame_needed = 0, uses_anonymous_args = 0
	.loc 6 512 1
	.syntax unified
@ 512 "../../../sdk_components/softdevice/s132/headers/ble.h" 1
	svc #99
bx r14
@ 0 "" 2
	.thumb
	.syntax unified
	nop
	mov	r0, r3
.LFE190:
	.size	sd_ble_uuid_decode, .-sd_ble_uuid_decode
	.section	.text.sd_ble_uuid_encode,"ax",%progbits
	.align	1
	.syntax unified
	.thumb
	.thumb_func
	.fpu fpv4-sp-d16
	.type	sd_ble_uuid_encode, %function
sd_ble_uuid_encode:
.LFB191:
	.loc 6 527 1
	@ Naked Function: prologue and epilogue provided by programmer.
	@ args = 0, pretend = 0, frame = 0
	@ frame_needed = 0, uses_anonymous_args = 0
	.loc 6 527 1
	.syntax unified
@ 527 "../../../sdk_components/softdevice/s132/headers/ble.h" 1
	svc #100
bx r14
@ 0 "" 2
	.thumb
	.syntax unified
	nop
	mov	r0, r3
.LFE191:
	.size	sd_ble_uuid_encode, .-sd_ble_uuid_encode
	.section	.text.sd_ble_version_get,"ax",%progbits
	.align	1
	.syntax unified
	.thumb
	.thumb_func
	.fpu fpv4-sp-d16
	.type	sd_ble_version_get, %function
sd_ble_version_get:
.LFB192:
	.loc 6 540 1
	@ Naked Function: prologue and epilogue provided by programmer.
	@ args = 0, pretend = 0, frame = 0
	@ frame_needed = 0, uses_anonymous_args = 0
	.loc 6 540 1
	.syntax unified
@ 540 "../../../sdk_components/softdevice/s132/headers/ble.h" 1
	svc #101
bx r14
@ 0 "" 2
	.thumb
	.syntax unified
	nop
	mov	r0, r3
.LFE192:
	.size	sd_ble_version_get, .-sd_ble_version_get
	.section	.text.sd_ble_user_mem_reply,"ax",%progbits
	.align	1
	.syntax unified
	.thumb
	.thumb_func
	.fpu fpv4-sp-d16
	.type	sd_ble_user_mem_reply, %function
sd_ble_user_mem_reply:
.LFB193:
	.loc 6 565 1
	@ Naked Function: prologue and epilogue provided by programmer.
	@ args = 0, pretend = 0, frame = 0
	@ frame_needed = 0, uses_anonymous_args = 0
	.loc 6 565 1
	.syntax unified
@ 565 "../../../sdk_components/softdevice/s132/headers/ble.h" 1
	svc #102
bx r14
@ 0 "" 2
	.thumb
	.syntax unified
	nop
	mov	r0, r3
.LFE193:
	.size	sd_ble_user_mem_reply, .-sd_ble_user_mem_reply
	.section	.text.sd_ble_opt_set,"ax",%progbits
	.align	1
	.syntax unified
	.thumb
	.thumb_func
	.fpu fpv4-sp-d16
	.type	sd_ble_opt_set, %function
sd_ble_opt_set:
.LFB194:
	.loc 6 585 1
	@ Naked Function: prologue and epilogue provided by programmer.
	@ args = 0, pretend = 0, frame = 0
	@ frame_needed = 0, uses_anonymous_args = 0
	.loc 6 585 1
	.syntax unified
@ 585 "../../../sdk_components/softdevice/s132/headers/ble.h" 1
	svc #103
bx r14
@ 0 "" 2
	.thumb
	.syntax unified
	nop
	mov	r0, r3
.LFE194:
	.size	sd_ble_opt_set, .-sd_ble_opt_set
	.section	.text.sd_ble_opt_get,"ax",%progbits
	.align	1
	.syntax unified
	.thumb
	.thumb_func
	.fpu fpv4-sp-d16
	.type	sd_ble_opt_get, %function
sd_ble_opt_get:
.LFB195:
	.loc 6 604 1
	@ Naked Function: prologue and epilogue provided by programmer.
	@ args = 0, pretend = 0, frame = 0
	@ frame_needed = 0, uses_anonymous_args = 0
	.loc 6 604 1
	.syntax unified
@ 604 "../../../sdk_components/softdevice/s132/headers/ble.h" 1
	svc #104
bx r14
@ 0 "" 2
	.thumb
	.syntax unified
	nop
	mov	r0, r3
.LFE195:
	.size	sd_ble_opt_get, .-sd_ble_opt_get
	.section	.text.sd_mutex_new,"ax",%progbits
	.align	1
	.syntax unified
	.thumb
	.thumb_func
	.fpu fpv4-sp-d16
	.type	sd_mutex_new, %function
sd_mutex_new:
.LFB212:
	.file 7 "../../../sdk_components/softdevice/s132/headers/nrf_soc.h"
	.loc 7 387 1
	@ Naked Function: prologue and epilogue provided by programmer.
	@ args = 0, pretend = 0, frame = 0
	@ frame_needed = 0, uses_anonymous_args = 0
	.loc 7 387 1
	.syntax unified
@ 387 "../../../sdk_components/softdevice/s132/headers/nrf_soc.h" 1
	svc #43
bx r14
@ 0 "" 2
	.thumb
	.syntax unified
	nop
	mov	r0, r3
.LFE212:
	.size	sd_mutex_new, .-sd_mutex_new
	.section	.text.sd_mutex_acquire,"ax",%progbits
	.align	1
	.syntax unified
	.thumb
	.thumb_func
	.fpu fpv4-sp-d16
	.type	sd_mutex_acquire, %function
sd_mutex_acquire:
.LFB213:
	.loc 7 396 1
	@ Naked Function: prologue and epilogue provided by programmer.
	@ args = 0, pretend = 0, frame = 0
	@ frame_needed = 0, uses_anonymous_args = 0
	.loc 7 396 1
	.syntax unified
@ 396 "../../../sdk_components/softdevice/s132/headers/nrf_soc.h" 1
	svc #44
bx r14
@ 0 "" 2
	.thumb
	.syntax unified
	nop
	mov	r0, r3
.LFE213:
	.size	sd_mutex_acquire, .-sd_mutex_acquire
	.section	.text.sd_mutex_release,"ax",%progbits
	.align	1
	.syntax unified
	.thumb
	.thumb_func
	.fpu fpv4-sp-d16
	.type	sd_mutex_release, %function
sd_mutex_release:
.LFB214:
	.loc 7 404 1
	@ Naked Function: prologue and epilogue provided by programmer.
	@ args = 0, pretend = 0, frame = 0
	@ frame_needed = 0, uses_anonymous_args = 0
	.loc 7 404 1
	.syntax unified
@ 404 "../../../sdk_components/softdevice/s132/headers/nrf_soc.h" 1
	svc #45
bx r14
@ 0 "" 2
	.thumb
	.syntax unified
	nop
	mov	r0, r3
.LFE214:
	.size	sd_mutex_release, .-sd_mutex_release
	.section	.text.sd_rand_application_pool_capacity_get,"ax",%progbits
	.align	1
	.syntax unified
	.thumb
	.thumb_func
	.fpu fpv4-sp-d16
	.type	sd_rand_application_pool_capacity_get, %function
sd_rand_application_pool_capacity_get:
.LFB215:
	.loc 7 412 1
	@ Naked Function: prologue and epilogue provided by programmer.
	@ args = 0, pretend = 0, frame = 0
	@ frame_needed = 0, uses_anonymous_args = 0
	.loc 7 412 1
	.syntax unified
@ 412 "../../../sdk_components/softdevice/s132/headers/nrf_soc.h" 1
	svc #46
bx r14
@ 0 "" 2
	.thumb
	.syntax unified
	nop
	mov	r0, r3
.LFE215:
	.size	sd_rand_application_pool_capacity_get, .-sd_rand_application_pool_capacity_get
	.section	.text.sd_rand_application_bytes_available_get,"ax",%progbits
	.align	1
	.syntax unified
	.thumb
	.thumb_func
	.fpu fpv4-sp-d16
	.type	sd_rand_application_bytes_available_get, %function
sd_rand_application_bytes_available_get:
.LFB216:
	.loc 7 420 1
	@ Naked Function: prologue and epilogue provided by programmer.
	@ args = 0, pretend = 0, frame = 0
	@ frame_needed = 0, uses_anonymous_args = 0
	.loc 7 420 1
	.syntax unified
@ 420 "../../../sdk_components/softdevice/s132/headers/nrf_soc.h" 1
	svc #47
bx r14
@ 0 "" 2
	.thumb
	.syntax unified
	nop
	mov	r0, r3
.LFE216:
	.size	sd_rand_application_bytes_available_get, .-sd_rand_application_bytes_available_get
	.section	.text.sd_rand_application_vector_get,"ax",%progbits
	.align	1
	.syntax unified
	.thumb
	.thumb_func
	.fpu fpv4-sp-d16
	.type	sd_rand_application_vector_get, %function
sd_rand_application_vector_get:
.LFB217:
	.loc 7 430 1
	@ Naked Function: prologue and epilogue provided by programmer.
	@ args = 0, pretend = 0, frame = 0
	@ frame_needed = 0, uses_anonymous_args = 0
	.loc 7 430 1
	.syntax unified
@ 430 "../../../sdk_components/softdevice/s132/headers/nrf_soc.h" 1
	svc #48
bx r14
@ 0 "" 2
	.thumb
	.syntax unified
	nop
	mov	r0, r3
.LFE217:
	.size	sd_rand_application_vector_get, .-sd_rand_application_vector_get
	.section	.text.sd_power_reset_reason_get,"ax",%progbits
	.align	1
	.syntax unified
	.thumb
	.thumb_func
	.fpu fpv4-sp-d16
	.type	sd_power_reset_reason_get, %function
sd_power_reset_reason_get:
.LFB218:
	.loc 7 438 1
	@ Naked Function: prologue and epilogue provided by programmer.
	@ args = 0, pretend = 0, frame = 0
	@ frame_needed = 0, uses_anonymous_args = 0
	.loc 7 438 1
	.syntax unified
@ 438 "../../../sdk_components/softdevice/s132/headers/nrf_soc.h" 1
	svc #51
bx r14
@ 0 "" 2
	.thumb
	.syntax unified
	nop
	mov	r0, r3
.LFE218:
	.size	sd_power_reset_reason_get, .-sd_power_reset_reason_get
	.section	.text.sd_power_reset_reason_clr,"ax",%progbits
	.align	1
	.syntax unified
	.thumb
	.thumb_func
	.fpu fpv4-sp-d16
	.type	sd_power_reset_reason_clr, %function
sd_power_reset_reason_clr:
.LFB219:
	.loc 7 446 1
	@ Naked Function: prologue and epilogue provided by programmer.
	@ args = 0, pretend = 0, frame = 0
	@ frame_needed = 0, uses_anonymous_args = 0
	.loc 7 446 1
	.syntax unified
@ 446 "../../../sdk_components/softdevice/s132/headers/nrf_soc.h" 1
	svc #52
bx r14
@ 0 "" 2
	.thumb
	.syntax unified
	nop
	mov	r0, r3
.LFE219:
	.size	sd_power_reset_reason_clr, .-sd_power_reset_reason_clr
	.section	.text.sd_power_mode_set,"ax",%progbits
	.align	1
	.syntax unified
	.thumb
	.thumb_func
	.fpu fpv4-sp-d16
	.type	sd_power_mode_set, %function
sd_power_mode_set:
.LFB220:
	.loc 7 455 1
	@ Naked Function: prologue and epilogue provided by programmer.
	@ args = 0, pretend = 0, frame = 0
	@ frame_needed = 0, uses_anonymous_args = 0
	.loc 7 455 1
	.syntax unified
@ 455 "../../../sdk_components/softdevice/s132/headers/nrf_soc.h" 1
	svc #49
bx r14
@ 0 "" 2
	.thumb
	.syntax unified
	nop
	mov	r0, r3
.LFE220:
	.size	sd_power_mode_set, .-sd_power_mode_set
	.section	.text.sd_power_system_off,"ax",%progbits
	.align	1
	.syntax unified
	.thumb
	.thumb_func
	.fpu fpv4-sp-d16
	.type	sd_power_system_off, %function
sd_power_system_off:
.LFB221:
	.loc 7 461 1
	@ Naked Function: prologue and epilogue provided by programmer.
	@ args = 0, pretend = 0, frame = 0
	@ frame_needed = 0, uses_anonymous_args = 0
	.loc 7 461 1
	.syntax unified
@ 461 "../../../sdk_components/softdevice/s132/headers/nrf_soc.h" 1
	svc #50
bx r14
@ 0 "" 2
	.thumb
	.syntax unified
	nop
	mov	r0, r3
.LFE221:
	.size	sd_power_system_off, .-sd_power_system_off
	.section	.text.sd_power_pof_enable,"ax",%progbits
	.align	1
	.syntax unified
	.thumb
	.thumb_func
	.fpu fpv4-sp-d16
	.type	sd_power_pof_enable, %function
sd_power_pof_enable:
.LFB222:
	.loc 7 472 1
	@ Naked Function: prologue and epilogue provided by programmer.
	@ args = 0, pretend = 0, frame = 0
	@ frame_needed = 0, uses_anonymous_args = 0
	.loc 7 472 1
	.syntax unified
@ 472 "../../../sdk_components/softdevice/s132/headers/nrf_soc.h" 1
	svc #53
bx r14
@ 0 "" 2
	.thumb
	.syntax unified
	nop
	mov	r0, r3
.LFE222:
	.size	sd_power_pof_enable, .-sd_power_pof_enable
	.section	.text.sd_power_pof_threshold_set,"ax",%progbits
	.align	1
	.syntax unified
	.thumb
	.thumb_func
	.fpu fpv4-sp-d16
	.type	sd_power_pof_threshold_set, %function
sd_power_pof_threshold_set:
.LFB223:
	.loc 7 481 1
	@ Naked Function: prologue and epilogue provided by programmer.
	@ args = 0, pretend = 0, frame = 0
	@ frame_needed = 0, uses_anonymous_args = 0
	.loc 7 481 1
	.syntax unified
@ 481 "../../../sdk_components/softdevice/s132/headers/nrf_soc.h" 1
	svc #54
bx r14
@ 0 "" 2
	.thumb
	.syntax unified
	nop
	mov	r0, r3
.LFE223:
	.size	sd_power_pof_threshold_set, .-sd_power_pof_threshold_set
	.section	.text.sd_power_ram_power_set,"ax",%progbits
	.align	1
	.syntax unified
	.thumb
	.thumb_func
	.fpu fpv4-sp-d16
	.type	sd_power_ram_power_set, %function
sd_power_ram_power_set:
.LFB224:
	.loc 7 490 1
	@ Naked Function: prologue and epilogue provided by programmer.
	@ args = 0, pretend = 0, frame = 0
	@ frame_needed = 0, uses_anonymous_args = 0
	.loc 7 490 1
	.syntax unified
@ 490 "../../../sdk_components/softdevice/s132/headers/nrf_soc.h" 1
	svc #55
bx r14
@ 0 "" 2
	.thumb
	.syntax unified
	nop
	mov	r0, r3
.LFE224:
	.size	sd_power_ram_power_set, .-sd_power_ram_power_set
	.section	.text.sd_power_ram_power_clr,"ax",%progbits
	.align	1
	.syntax unified
	.thumb
	.thumb_func
	.fpu fpv4-sp-d16
	.type	sd_power_ram_power_clr, %function
sd_power_ram_power_clr:
.LFB225:
	.loc 7 499 1
	@ Naked Function: prologue and epilogue provided by programmer.
	@ args = 0, pretend = 0, frame = 0
	@ frame_needed = 0, uses_anonymous_args = 0
	.loc 7 499 1
	.syntax unified
@ 499 "../../../sdk_components/softdevice/s132/headers/nrf_soc.h" 1
	svc #56
bx r14
@ 0 "" 2
	.thumb
	.syntax unified
	nop
	mov	r0, r3
.LFE225:
	.size	sd_power_ram_power_clr, .-sd_power_ram_power_clr
	.section	.text.sd_power_ram_power_get,"ax",%progbits
	.align	1
	.syntax unified
	.thumb
	.thumb_func
	.fpu fpv4-sp-d16
	.type	sd_power_ram_power_get, %function
sd_power_ram_power_get:
.LFB226:
	.loc 7 508 1
	@ Naked Function: prologue and epilogue provided by programmer.
	@ args = 0, pretend = 0, frame = 0
	@ frame_needed = 0, uses_anonymous_args = 0
	.loc 7 508 1
	.syntax unified
@ 508 "../../../sdk_components/softdevice/s132/headers/nrf_soc.h" 1
	svc #57
bx r14
@ 0 "" 2
	.thumb
	.syntax unified
	nop
	mov	r0, r3
.LFE226:
	.size	sd_power_ram_power_get, .-sd_power_ram_power_get
	.section	.text.sd_power_gpregret_set,"ax",%progbits
	.align	1
	.syntax unified
	.thumb
	.thumb_func
	.fpu fpv4-sp-d16
	.type	sd_power_gpregret_set, %function
sd_power_gpregret_set:
.LFB227:
	.loc 7 518 1
	@ Naked Function: prologue and epilogue provided by programmer.
	@ args = 0, pretend = 0, frame = 0
	@ frame_needed = 0, uses_anonymous_args = 0
	.loc 7 518 1
	.syntax unified
@ 518 "../../../sdk_components/softdevice/s132/headers/nrf_soc.h" 1
	svc #58
bx r14
@ 0 "" 2
	.thumb
	.syntax unified
	nop
	mov	r0, r3
.LFE227:
	.size	sd_power_gpregret_set, .-sd_power_gpregret_set
	.section	.text.sd_power_gpregret_clr,"ax",%progbits
	.align	1
	.syntax unified
	.thumb
	.thumb_func
	.fpu fpv4-sp-d16
	.type	sd_power_gpregret_clr, %function
sd_power_gpregret_clr:
.LFB228:
	.loc 7 528 1
	@ Naked Function: prologue and epilogue provided by programmer.
	@ args = 0, pretend = 0, frame = 0
	@ frame_needed = 0, uses_anonymous_args = 0
	.loc 7 528 1
	.syntax unified
@ 528 "../../../sdk_components/softdevice/s132/headers/nrf_soc.h" 1
	svc #59
bx r14
@ 0 "" 2
	.thumb
	.syntax unified
	nop
	mov	r0, r3
.LFE228:
	.size	sd_power_gpregret_clr, .-sd_power_gpregret_clr
	.section	.text.sd_power_gpregret_get,"ax",%progbits
	.align	1
	.syntax unified
	.thumb
	.thumb_func
	.fpu fpv4-sp-d16
	.type	sd_power_gpregret_get, %function
sd_power_gpregret_get:
.LFB229:
	.loc 7 538 1
	@ Naked Function: prologue and epilogue provided by programmer.
	@ args = 0, pretend = 0, frame = 0
	@ frame_needed = 0, uses_anonymous_args = 0
	.loc 7 538 1
	.syntax unified
@ 538 "../../../sdk_components/softdevice/s132/headers/nrf_soc.h" 1
	svc #60
bx r14
@ 0 "" 2
	.thumb
	.syntax unified
	nop
	mov	r0, r3
.LFE229:
	.size	sd_power_gpregret_get, .-sd_power_gpregret_get
	.section	.text.sd_power_dcdc_mode_set,"ax",%progbits
	.align	1
	.syntax unified
	.thumb
	.thumb_func
	.fpu fpv4-sp-d16
	.type	sd_power_dcdc_mode_set, %function
sd_power_dcdc_mode_set:
.LFB230:
	.loc 7 549 1
	@ Naked Function: prologue and epilogue provided by programmer.
	@ args = 0, pretend = 0, frame = 0
	@ frame_needed = 0, uses_anonymous_args = 0
	.loc 7 549 1
	.syntax unified
@ 549 "../../../sdk_components/softdevice/s132/headers/nrf_soc.h" 1
	svc #61
bx r14
@ 0 "" 2
	.thumb
	.syntax unified
	nop
	mov	r0, r3
.LFE230:
	.size	sd_power_dcdc_mode_set, .-sd_power_dcdc_mode_set
	.section	.text.sd_clock_hfclk_request,"ax",%progbits
	.align	1
	.syntax unified
	.thumb
	.thumb_func
	.fpu fpv4-sp-d16
	.type	sd_clock_hfclk_request, %function
sd_clock_hfclk_request:
.LFB231:
	.loc 7 561 1
	@ Naked Function: prologue and epilogue provided by programmer.
	@ args = 0, pretend = 0, frame = 0
	@ frame_needed = 0, uses_anonymous_args = 0
	.loc 7 561 1
	.syntax unified
@ 561 "../../../sdk_components/softdevice/s132/headers/nrf_soc.h" 1
	svc #63
bx r14
@ 0 "" 2
	.thumb
	.syntax unified
	nop
	mov	r0, r3
.LFE231:
	.size	sd_clock_hfclk_request, .-sd_clock_hfclk_request
	.section	.text.sd_clock_hfclk_release,"ax",%progbits
	.align	1
	.syntax unified
	.thumb
	.thumb_func
	.fpu fpv4-sp-d16
	.type	sd_clock_hfclk_release, %function
sd_clock_hfclk_release:
.LFB232:
	.loc 7 572 1
	@ Naked Function: prologue and epilogue provided by programmer.
	@ args = 0, pretend = 0, frame = 0
	@ frame_needed = 0, uses_anonymous_args = 0
	.loc 7 572 1
	.syntax unified
@ 572 "../../../sdk_components/softdevice/s132/headers/nrf_soc.h" 1
	svc #64
bx r14
@ 0 "" 2
	.thumb
	.syntax unified
	nop
	mov	r0, r3
.LFE232:
	.size	sd_clock_hfclk_release, .-sd_clock_hfclk_release
	.section	.text.sd_clock_hfclk_is_running,"ax",%progbits
	.align	1
	.syntax unified
	.thumb
	.thumb_func
	.fpu fpv4-sp-d16
	.type	sd_clock_hfclk_is_running, %function
sd_clock_hfclk_is_running:
.LFB233:
	.loc 7 583 1
	@ Naked Function: prologue and epilogue provided by programmer.
	@ args = 0, pretend = 0, frame = 0
	@ frame_needed = 0, uses_anonymous_args = 0
	.loc 7 583 1
	.syntax unified
@ 583 "../../../sdk_components/softdevice/s132/headers/nrf_soc.h" 1
	svc #65
bx r14
@ 0 "" 2
	.thumb
	.syntax unified
	nop
	mov	r0, r3
.LFE233:
	.size	sd_clock_hfclk_is_running, .-sd_clock_hfclk_is_running
	.section	.text.sd_app_evt_wait,"ax",%progbits
	.align	1
	.syntax unified
	.thumb
	.thumb_func
	.fpu fpv4-sp-d16
	.type	sd_app_evt_wait, %function
sd_app_evt_wait:
.LFB234:
	.loc 7 611 1
	@ Naked Function: prologue and epilogue provided by programmer.
	@ args = 0, pretend = 0, frame = 0
	@ frame_needed = 0, uses_anonymous_args = 0
	.loc 7 611 1
	.syntax unified
@ 611 "../../../sdk_components/softdevice/s132/headers/nrf_soc.h" 1
	svc #62
bx r14
@ 0 "" 2
	.thumb
	.syntax unified
	nop
	mov	r0, r3
.LFE234:
	.size	sd_app_evt_wait, .-sd_app_evt_wait
	.section	.text.sd_ppi_channel_enable_get,"ax",%progbits
	.align	1
	.syntax unified
	.thumb
	.thumb_func
	.fpu fpv4-sp-d16
	.type	sd_ppi_channel_enable_get, %function
sd_ppi_channel_enable_get:
.LFB235:
	.loc 7 619 1
	@ Naked Function: prologue and epilogue provided by programmer.
	@ args = 0, pretend = 0, frame = 0
	@ frame_needed = 0, uses_anonymous_args = 0
	.loc 7 619 1
	.syntax unified
@ 619 "../../../sdk_components/softdevice/s132/headers/nrf_soc.h" 1
	svc #32
bx r14
@ 0 "" 2
	.thumb
	.syntax unified
	nop
	mov	r0, r3
.LFE235:
	.size	sd_ppi_channel_enable_get, .-sd_ppi_channel_enable_get
	.section	.text.sd_ppi_channel_enable_set,"ax",%progbits
	.align	1
	.syntax unified
	.thumb
	.thumb_func
	.fpu fpv4-sp-d16
	.type	sd_ppi_channel_enable_set, %function
sd_ppi_channel_enable_set:
.LFB236:
	.loc 7 627 1
	@ Naked Function: prologue and epilogue provided by programmer.
	@ args = 0, pretend = 0, frame = 0
	@ frame_needed = 0, uses_anonymous_args = 0
	.loc 7 627 1
	.syntax unified
@ 627 "../../../sdk_components/softdevice/s132/headers/nrf_soc.h" 1
	svc #33
bx r14
@ 0 "" 2
	.thumb
	.syntax unified
	nop
	mov	r0, r3
.LFE236:
	.size	sd_ppi_channel_enable_set, .-sd_ppi_channel_enable_set
	.section	.text.sd_ppi_channel_enable_clr,"ax",%progbits
	.align	1
	.syntax unified
	.thumb
	.thumb_func
	.fpu fpv4-sp-d16
	.type	sd_ppi_channel_enable_clr, %function
sd_ppi_channel_enable_clr:
.LFB237:
	.loc 7 635 1
	@ Naked Function: prologue and epilogue provided by programmer.
	@ args = 0, pretend = 0, frame = 0
	@ frame_needed = 0, uses_anonymous_args = 0
	.loc 7 635 1
	.syntax unified
@ 635 "../../../sdk_components/softdevice/s132/headers/nrf_soc.h" 1
	svc #34
bx r14
@ 0 "" 2
	.thumb
	.syntax unified
	nop
	mov	r0, r3
.LFE237:
	.size	sd_ppi_channel_enable_clr, .-sd_ppi_channel_enable_clr
	.section	.text.sd_ppi_channel_assign,"ax",%progbits
	.align	1
	.syntax unified
	.thumb
	.thumb_func
	.fpu fpv4-sp-d16
	.type	sd_ppi_channel_assign, %function
sd_ppi_channel_assign:
.LFB238:
	.loc 7 646 1
	@ Naked Function: prologue and epilogue provided by programmer.
	@ args = 0, pretend = 0, frame = 0
	@ frame_needed = 0, uses_anonymous_args = 0
	.loc 7 646 1
	.syntax unified
@ 646 "../../../sdk_components/softdevice/s132/headers/nrf_soc.h" 1
	svc #35
bx r14
@ 0 "" 2
	.thumb
	.syntax unified
	nop
	mov	r0, r3
.LFE238:
	.size	sd_ppi_channel_assign, .-sd_ppi_channel_assign
	.section	.text.sd_ppi_group_task_enable,"ax",%progbits
	.align	1
	.syntax unified
	.thumb
	.thumb_func
	.fpu fpv4-sp-d16
	.type	sd_ppi_group_task_enable, %function
sd_ppi_group_task_enable:
.LFB239:
	.loc 7 655 1
	@ Naked Function: prologue and epilogue provided by programmer.
	@ args = 0, pretend = 0, frame = 0
	@ frame_needed = 0, uses_anonymous_args = 0
	.loc 7 655 1
	.syntax unified
@ 655 "../../../sdk_components/softdevice/s132/headers/nrf_soc.h" 1
	svc #36
bx r14
@ 0 "" 2
	.thumb
	.syntax unified
	nop
	mov	r0, r3
.LFE239:
	.size	sd_ppi_group_task_enable, .-sd_ppi_group_task_enable
	.section	.text.sd_ppi_group_task_disable,"ax",%progbits
	.align	1
	.syntax unified
	.thumb
	.thumb_func
	.fpu fpv4-sp-d16
	.type	sd_ppi_group_task_disable, %function
sd_ppi_group_task_disable:
.LFB240:
	.loc 7 664 1
	@ Naked Function: prologue and epilogue provided by programmer.
	@ args = 0, pretend = 0, frame = 0
	@ frame_needed = 0, uses_anonymous_args = 0
	.loc 7 664 1
	.syntax unified
@ 664 "../../../sdk_components/softdevice/s132/headers/nrf_soc.h" 1
	svc #37
bx r14
@ 0 "" 2
	.thumb
	.syntax unified
	nop
	mov	r0, r3
.LFE240:
	.size	sd_ppi_group_task_disable, .-sd_ppi_group_task_disable
	.section	.text.sd_ppi_group_assign,"ax",%progbits
	.align	1
	.syntax unified
	.thumb
	.thumb_func
	.fpu fpv4-sp-d16
	.type	sd_ppi_group_assign, %function
sd_ppi_group_assign:
.LFB241:
	.loc 7 674 1
	@ Naked Function: prologue and epilogue provided by programmer.
	@ args = 0, pretend = 0, frame = 0
	@ frame_needed = 0, uses_anonymous_args = 0
	.loc 7 674 1
	.syntax unified
@ 674 "../../../sdk_components/softdevice/s132/headers/nrf_soc.h" 1
	svc #38
bx r14
@ 0 "" 2
	.thumb
	.syntax unified
	nop
	mov	r0, r3
.LFE241:
	.size	sd_ppi_group_assign, .-sd_ppi_group_assign
	.section	.text.sd_ppi_group_get,"ax",%progbits
	.align	1
	.syntax unified
	.thumb
	.thumb_func
	.fpu fpv4-sp-d16
	.type	sd_ppi_group_get, %function
sd_ppi_group_get:
.LFB242:
	.loc 7 684 1
	@ Naked Function: prologue and epilogue provided by programmer.
	@ args = 0, pretend = 0, frame = 0
	@ frame_needed = 0, uses_anonymous_args = 0
	.loc 7 684 1
	.syntax unified
@ 684 "../../../sdk_components/softdevice/s132/headers/nrf_soc.h" 1
	svc #39
bx r14
@ 0 "" 2
	.thumb
	.syntax unified
	nop
	mov	r0, r3
.LFE242:
	.size	sd_ppi_group_get, .-sd_ppi_group_get
	.section	.text.sd_radio_notification_cfg_set,"ax",%progbits
	.align	1
	.syntax unified
	.thumb
	.thumb_func
	.fpu fpv4-sp-d16
	.type	sd_radio_notification_cfg_set, %function
sd_radio_notification_cfg_set:
.LFB243:
	.loc 7 715 1
	@ Naked Function: prologue and epilogue provided by programmer.
	@ args = 0, pretend = 0, frame = 0
	@ frame_needed = 0, uses_anonymous_args = 0
	.loc 7 715 1
	.syntax unified
@ 715 "../../../sdk_components/softdevice/s132/headers/nrf_soc.h" 1
	svc #66
bx r14
@ 0 "" 2
	.thumb
	.syntax unified
	nop
	mov	r0, r3
.LFE243:
	.size	sd_radio_notification_cfg_set, .-sd_radio_notification_cfg_set
	.section	.text.sd_ecb_block_encrypt,"ax",%progbits
	.align	1
	.syntax unified
	.thumb
	.thumb_func
	.fpu fpv4-sp-d16
	.type	sd_ecb_block_encrypt, %function
sd_ecb_block_encrypt:
.LFB244:
	.loc 7 731 1
	@ Naked Function: prologue and epilogue provided by programmer.
	@ args = 0, pretend = 0, frame = 0
	@ frame_needed = 0, uses_anonymous_args = 0
	.loc 7 731 1
	.syntax unified
@ 731 "../../../sdk_components/softdevice/s132/headers/nrf_soc.h" 1
	svc #67
bx r14
@ 0 "" 2
	.thumb
	.syntax unified
	nop
	mov	r0, r3
.LFE244:
	.size	sd_ecb_block_encrypt, .-sd_ecb_block_encrypt
	.section	.text.sd_ecb_blocks_encrypt,"ax",%progbits
	.align	1
	.syntax unified
	.thumb
	.thumb_func
	.fpu fpv4-sp-d16
	.type	sd_ecb_blocks_encrypt, %function
sd_ecb_blocks_encrypt:
.LFB245:
	.loc 7 748 1
	@ Naked Function: prologue and epilogue provided by programmer.
	@ args = 0, pretend = 0, frame = 0
	@ frame_needed = 0, uses_anonymous_args = 0
	.loc 7 748 1
	.syntax unified
@ 748 "../../../sdk_components/softdevice/s132/headers/nrf_soc.h" 1
	svc #68
bx r14
@ 0 "" 2
	.thumb
	.syntax unified
	nop
	mov	r0, r3
.LFE245:
	.size	sd_ecb_blocks_encrypt, .-sd_ecb_blocks_encrypt
	.section	.text.sd_evt_get,"ax",%progbits
	.align	1
	.syntax unified
	.thumb
	.thumb_func
	.fpu fpv4-sp-d16
	.type	sd_evt_get, %function
sd_evt_get:
.LFB246:
	.loc 7 759 1
	@ Naked Function: prologue and epilogue provided by programmer.
	@ args = 0, pretend = 0, frame = 0
	@ frame_needed = 0, uses_anonymous_args = 0
	.loc 7 759 1
	.syntax unified
@ 759 "../../../sdk_components/softdevice/s132/headers/nrf_soc.h" 1
	svc #72
bx r14
@ 0 "" 2
	.thumb
	.syntax unified
	nop
	mov	r0, r3
.LFE246:
	.size	sd_evt_get, .-sd_evt_get
	.section	.text.sd_temp_get,"ax",%progbits
	.align	1
	.syntax unified
	.thumb
	.thumb_func
	.fpu fpv4-sp-d16
	.type	sd_temp_get, %function
sd_temp_get:
.LFB247:
	.loc 7 770 1
	@ Naked Function: prologue and epilogue provided by programmer.
	@ args = 0, pretend = 0, frame = 0
	@ frame_needed = 0, uses_anonymous_args = 0
	.loc 7 770 1
	.syntax unified
@ 770 "../../../sdk_components/softdevice/s132/headers/nrf_soc.h" 1
	svc #73
bx r14
@ 0 "" 2
	.thumb
	.syntax unified
	nop
	mov	r0, r3
.LFE247:
	.size	sd_temp_get, .-sd_temp_get
	.section	.text.sd_flash_write,"ax",%progbits
	.align	1
	.syntax unified
	.thumb
	.thumb_func
	.fpu fpv4-sp-d16
	.type	sd_flash_write, %function
sd_flash_write:
.LFB248:
	.loc 7 804 1
	@ Naked Function: prologue and epilogue provided by programmer.
	@ args = 0, pretend = 0, frame = 0
	@ frame_needed = 0, uses_anonymous_args = 0
	.loc 7 804 1
	.syntax unified
@ 804 "../../../sdk_components/softdevice/s132/headers/nrf_soc.h" 1
	svc #41
bx r14
@ 0 "" 2
	.thumb
	.syntax unified
	nop
	mov	r0, r3
.LFE248:
	.size	sd_flash_write, .-sd_flash_write
	.section	.text.sd_flash_page_erase,"ax",%progbits
	.align	1
	.syntax unified
	.thumb
	.thumb_func
	.fpu fpv4-sp-d16
	.type	sd_flash_page_erase, %function
sd_flash_page_erase:
.LFB249:
	.loc 7 834 1
	@ Naked Function: prologue and epilogue provided by programmer.
	@ args = 0, pretend = 0, frame = 0
	@ frame_needed = 0, uses_anonymous_args = 0
	.loc 7 834 1
	.syntax unified
@ 834 "../../../sdk_components/softdevice/s132/headers/nrf_soc.h" 1
	svc #40
bx r14
@ 0 "" 2
	.thumb
	.syntax unified
	nop
	mov	r0, r3
.LFE249:
	.size	sd_flash_page_erase, .-sd_flash_page_erase
	.section	.text.sd_flash_protect,"ax",%progbits
	.align	1
	.syntax unified
	.thumb
	.thumb_func
	.fpu fpv4-sp-d16
	.type	sd_flash_protect, %function
sd_flash_protect:
.LFB250:
	.loc 7 853 1
	@ Naked Function: prologue and epilogue provided by programmer.
	@ args = 0, pretend = 0, frame = 0
	@ frame_needed = 0, uses_anonymous_args = 0
	.loc 7 853 1
	.syntax unified
@ 853 "../../../sdk_components/softdevice/s132/headers/nrf_soc.h" 1
	svc #42
bx r14
@ 0 "" 2
	.thumb
	.syntax unified
	nop
	mov	r0, r3
.LFE250:
	.size	sd_flash_protect, .-sd_flash_protect
	.section	.text.sd_radio_session_open,"ax",%progbits
	.align	1
	.syntax unified
	.thumb
	.thumb_func
	.fpu fpv4-sp-d16
	.type	sd_radio_session_open, %function
sd_radio_session_open:
.LFB251:
	.loc 7 875 2
	@ Naked Function: prologue and epilogue provided by programmer.
	@ args = 0, pretend = 0, frame = 0
	@ frame_needed = 0, uses_anonymous_args = 0
	.loc 7 875 2
	.syntax unified
@ 875 "../../../sdk_components/softdevice/s132/headers/nrf_soc.h" 1
	svc #69
bx r14
@ 0 "" 2
	.thumb
	.syntax unified
	nop
	mov	r0, r3
.LFE251:
	.size	sd_radio_session_open, .-sd_radio_session_open
	.section	.text.sd_radio_session_close,"ax",%progbits
	.align	1
	.syntax unified
	.thumb
	.thumb_func
	.fpu fpv4-sp-d16
	.type	sd_radio_session_close, %function
sd_radio_session_close:
.LFB252:
	.loc 7 888 2
	@ Naked Function: prologue and epilogue provided by programmer.
	@ args = 0, pretend = 0, frame = 0
	@ frame_needed = 0, uses_anonymous_args = 0
	.loc 7 888 2
	.syntax unified
@ 888 "../../../sdk_components/softdevice/s132/headers/nrf_soc.h" 1
	svc #70
bx r14
@ 0 "" 2
	.thumb
	.syntax unified
	nop
	mov	r0, r3
.LFE252:
	.size	sd_radio_session_close, .-sd_radio_session_close
	.section	.text.sd_radio_request,"ax",%progbits
	.align	1
	.syntax unified
	.thumb
	.thumb_func
	.fpu fpv4-sp-d16
	.type	sd_radio_request, %function
sd_radio_request:
.LFB253:
	.loc 7 920 2
	@ Naked Function: prologue and epilogue provided by programmer.
	@ args = 0, pretend = 0, frame = 0
	@ frame_needed = 0, uses_anonymous_args = 0
	.loc 7 920 2
	.syntax unified
@ 920 "../../../sdk_components/softdevice/s132/headers/nrf_soc.h" 1
	svc #71
bx r14
@ 0 "" 2
	.thumb
	.syntax unified
	nop
	mov	r0, r3
.LFE253:
	.size	sd_radio_request, .-sd_radio_request
	.section	.text.sd_softdevice_enable,"ax",%progbits
	.align	1
	.syntax unified
	.thumb
	.thumb_func
	.fpu fpv4-sp-d16
	.type	sd_softdevice_enable, %function
sd_softdevice_enable:
.LFB254:
	.file 8 "../../../sdk_components/softdevice/s132/headers/nrf_sdm.h"
	.loc 8 293 1
	@ Naked Function: prologue and epilogue provided by programmer.
	@ args = 0, pretend = 0, frame = 0
	@ frame_needed = 0, uses_anonymous_args = 0
	.loc 8 293 1
	.syntax unified
@ 293 "../../../sdk_components/softdevice/s132/headers/nrf_sdm.h" 1
	svc #16
bx r14
@ 0 "" 2
	.thumb
	.syntax unified
	nop
	mov	r0, r3
.LFE254:
	.size	sd_softdevice_enable, .-sd_softdevice_enable
	.section	.text.sd_softdevice_disable,"ax",%progbits
	.align	1
	.syntax unified
	.thumb
	.thumb_func
	.fpu fpv4-sp-d16
	.type	sd_softdevice_disable, %function
sd_softdevice_disable:
.LFB255:
	.loc 8 309 1
	@ Naked Function: prologue and epilogue provided by programmer.
	@ args = 0, pretend = 0, frame = 0
	@ frame_needed = 0, uses_anonymous_args = 0
	.loc 8 309 1
	.syntax unified
@ 309 "../../../sdk_components/softdevice/s132/headers/nrf_sdm.h" 1
	svc #17
bx r14
@ 0 "" 2
	.thumb
	.syntax unified
	nop
	mov	r0, r3
.LFE255:
	.size	sd_softdevice_disable, .-sd_softdevice_disable
	.section	.text.sd_softdevice_is_enabled,"ax",%progbits
	.align	1
	.syntax unified
	.thumb
	.thumb_func
	.fpu fpv4-sp-d16
	.type	sd_softdevice_is_enabled, %function
sd_softdevice_is_enabled:
.LFB256:
	.loc 8 317 1
	@ Naked Function: prologue and epilogue provided by programmer.
	@ args = 0, pretend = 0, frame = 0
	@ frame_needed = 0, uses_anonymous_args = 0
	.loc 8 317 1
	.syntax unified
@ 317 "../../../sdk_components/softdevice/s132/headers/nrf_sdm.h" 1
	svc #18
bx r14
@ 0 "" 2
	.thumb
	.syntax unified
	nop
	mov	r0, r3
.LFE256:
	.size	sd_softdevice_is_enabled, .-sd_softdevice_is_enabled
	.section	.text.sd_softdevice_vector_table_base_set,"ax",%progbits
	.align	1
	.syntax unified
	.thumb
	.thumb_func
	.fpu fpv4-sp-d16
	.type	sd_softdevice_vector_table_base_set, %function
sd_softdevice_vector_table_base_set:
.LFB257:
	.loc 8 327 1
	@ Naked Function: prologue and epilogue provided by programmer.
	@ args = 0, pretend = 0, frame = 0
	@ frame_needed = 0, uses_anonymous_args = 0
	.loc 8 327 1
	.syntax unified
@ 327 "../../../sdk_components/softdevice/s132/headers/nrf_sdm.h" 1
	svc #19
bx r14
@ 0 "" 2
	.thumb
	.syntax unified
	nop
	mov	r0, r3
.LFE257:
	.size	sd_softdevice_vector_table_base_set, .-sd_softdevice_vector_table_base_set
	.section	.text.nrf_gpio_pin_port_decode,"ax",%progbits
	.align	1
	.syntax unified
	.thumb
	.thumb_func
	.fpu fpv4-sp-d16
	.type	nrf_gpio_pin_port_decode, %function
nrf_gpio_pin_port_decode:
.LFB260:
	.file 9 "../../../sdk_components/drivers_nrf/hal/nrf_gpio.h"
	.loc 9 463 1
	@ args = 0, pretend = 0, frame = 8
	@ frame_needed = 0, uses_anonymous_args = 0
	@ link register save eliminated.
	sub	sp, sp, #8
.LCFI2:
	str	r0, [sp, #4]
	.loc 9 467 12
	mov	r3, #1342177280
	.loc 9 479 1
	mov	r0, r3
	add	sp, sp, #8
.LCFI3:
	@ sp needed
	bx	lr
.LFE260:
	.size	nrf_gpio_pin_port_decode, .-nrf_gpio_pin_port_decode
	.section	.text.nrf_gpio_cfg,"ax",%progbits
	.align	1
	.syntax unified
	.thumb
	.thumb_func
	.fpu fpv4-sp-d16
	.type	nrf_gpio_cfg, %function
nrf_gpio_cfg:
.LFB263:
	.loc 9 511 1
	@ args = 8, pretend = 0, frame = 16
	@ frame_needed = 0, uses_anonymous_args = 0
	push	{lr}
.LCFI4:
	sub	sp, sp, #20
.LCFI5:
	str	r0, [sp, #4]
	mov	r0, r1
	mov	r1, r2
	mov	r2, r3
	mov	r3, r0
	strb	r3, [sp, #3]
	mov	r3, r1
	strb	r3, [sp, #2]
	mov	r3, r2
	strb	r3, [sp, #1]
	.loc 9 512 27
	add	r3, sp, #4
	mov	r0, r3
	bl	nrf_gpio_pin_port_decode
	str	r0, [sp, #12]
	.loc 9 514 47
	ldrb	r2, [sp, #3]	@ zero_extendqisi2
	.loc 9 515 35
	ldrb	r3, [sp, #2]	@ zero_extendqisi2
	.loc 9 515 51
	lsls	r3, r3, #1
	.loc 9 515 32
	orrs	r2, r2, r3
	.loc 9 516 35
	ldrb	r3, [sp, #1]	@ zero_extendqisi2
	.loc 9 516 50
	lsls	r3, r3, #2
	.loc 9 516 32
	orrs	r2, r2, r3
	.loc 9 517 35
	ldrb	r3, [sp, #24]	@ zero_extendqisi2
	.loc 9 517 51
	lsls	r3, r3, #8
	.loc 9 517 32
	orr	r1, r2, r3
	.loc 9 518 35
	ldrb	r3, [sp, #28]	@ zero_extendqisi2
	.loc 9 518 51
	lsls	r3, r3, #16
	.loc 9 514 17
	ldr	r2, [sp, #4]
	.loc 9 518 32
	orrs	r1, r1, r3
	.loc 9 514 30
	ldr	r3, [sp, #12]
	add	r2, r2, #448
	str	r1, [r3, r2, lsl #2]
	.loc 9 519 1
	nop
	add	sp, sp, #20
.LCFI6:
	@ sp needed
	ldr	pc, [sp], #4
.LFE263:
	.size	nrf_gpio_cfg, .-nrf_gpio_cfg
	.section	.text.nrf_gpio_cfg_sense_input,"ax",%progbits
	.align	1
	.syntax unified
	.thumb
	.thumb_func
	.fpu fpv4-sp-d16
	.type	nrf_gpio_cfg_sense_input, %function
nrf_gpio_cfg_sense_input:
.LFB269:
	.loc 9 581 1
	@ args = 0, pretend = 0, frame = 8
	@ frame_needed = 0, uses_anonymous_args = 0
	push	{lr}
.LCFI7:
	sub	sp, sp, #20
.LCFI8:
	str	r0, [sp, #12]
	mov	r3, r1
	strb	r3, [sp, #11]
	mov	r3, r2
	strb	r3, [sp, #10]
	.loc 9 582 5
	ldrb	r2, [sp, #11]	@ zero_extendqisi2
	ldrb	r3, [sp, #10]	@ zero_extendqisi2
	str	r3, [sp, #4]
	movs	r3, #0
	str	r3, [sp]
	mov	r3, r2
	movs	r2, #0
	movs	r1, #0
	ldr	r0, [sp, #12]
	bl	nrf_gpio_cfg
	.loc 9 589 1
	nop
	add	sp, sp, #20
.LCFI9:
	@ sp needed
	ldr	pc, [sp], #4
.LFE269:
	.size	nrf_gpio_cfg_sense_input, .-nrf_gpio_cfg_sense_input
	.section	.text.nrf_delay_us,"ax",%progbits
	.align	1
	.syntax unified
	.thumb
	.thumb_func
	.fpu fpv4-sp-d16
	.type	nrf_delay_us, %function
nrf_delay_us:
.LFB347:
	.file 10 "../../../sdk_components/drivers_nrf/delay/nrf_delay.h"
	.loc 10 168 1
	@ args = 0, pretend = 0, frame = 16
	@ frame_needed = 0, uses_anonymous_args = 0
	@ link register save eliminated.
	sub	sp, sp, #16
.LCFI10:
	str	r0, [sp, #4]
	.loc 10 169 20
	ldr	r3, .L132
	str	r3, [sp, #12]
	.loc 10 170 8
	ldr	r3, [sp, #4]
	cmp	r3, #0
	beq	.L131
	.loc 10 172 1
	ldr	r3, .L132+4
	ldr	r2, [r3]
	ldr	r1, [sp, #12]
	ldr	r3, [sp, #4]
	.syntax unified
@ 172 "../../../sdk_components/drivers_nrf/delay/nrf_delay.h" 1
	1:
 NOP
 NOP
 NOP
 NOP
 NOP
 NOP
 NOP
 NOP
 CMP r2,r1
 BEQ.n 2f
 NOP
 NOP
 NOP
 NOP
 NOP
 NOP
 NOP
 NOP
 NOP
 NOP
 NOP
 NOP
 NOP
 NOP
 NOP
 NOP
 NOP
 NOP
 NOP
 NOP
 NOP
 NOP
 NOP
 NOP
 NOP
 NOP
 NOP
 NOP
 NOP
 NOP
 NOP
 NOP
 NOP
 NOP
 NOP
 NOP
 NOP
 NOP
 NOP
 NOP
 NOP
 NOP
 NOP
 NOP
 NOP
 NOP
 NOP
 NOP
2:
 SUBS r3, r3, #1
 BNE.n 1b

@ 0 "" 2
	.thumb
	.syntax unified
	str	r3, [sp, #4]
.L131:
	.loc 10 255 1
	nop
	add	sp, sp, #16
.LCFI11:
	@ sp needed
	bx	lr
.L133:
	.align	2
.L132:
	.word	16000000
	.word	SystemCoreClock
.LFE347:
	.size	nrf_delay_us, .-nrf_delay_us
	.section	.text.nrf_delay_ms,"ax",%progbits
	.align	1
	.syntax unified
	.thumb
	.thumb_func
	.fpu fpv4-sp-d16
	.type	nrf_delay_ms, %function
nrf_delay_ms:
.LFB348:
	.loc 10 259 1
	@ args = 0, pretend = 0, frame = 8
	@ frame_needed = 0, uses_anonymous_args = 0
	push	{lr}
.LCFI12:
	sub	sp, sp, #12
.LCFI13:
	str	r0, [sp, #4]
	.loc 10 260 5
	ldr	r3, [sp, #4]
	mov	r2, #1000
	mul	r3, r2, r3
	mov	r0, r3
	bl	nrf_delay_us
	.loc 10 261 1
	nop
	add	sp, sp, #12
.LCFI14:
	@ sp needed
	ldr	pc, [sp], #4
.LFE348:
	.size	nrf_delay_ms, .-nrf_delay_ms
	.section	.bss.my_led_0_timings,"aw",%nobits
	.align	2
	.type	my_led_0_timings, %object
	.size	my_led_0_timings, 12
my_led_0_timings:
	.space	12
	.section	.bss.my_led_0_timer_data,"aw",%nobits
	.align	2
	.type	my_led_0_timer_data, %object
	.size	my_led_0_timer_data, 32
my_led_0_timer_data:
	.space	32
	.section	.data.my_led_0,"aw"
	.align	2
	.type	my_led_0, %object
	.size	my_led_0, 8
my_led_0:
	.word	my_led_0_timings
	.word	my_led_0_timer_data
	.section	.bss.my_led_1_timings,"aw",%nobits
	.align	2
	.type	my_led_1_timings, %object
	.size	my_led_1_timings, 12
my_led_1_timings:
	.space	12
	.section	.bss.my_led_1_timer_data,"aw",%nobits
	.align	2
	.type	my_led_1_timer_data, %object
	.size	my_led_1_timer_data, 32
my_led_1_timer_data:
	.space	32
	.section	.data.my_led_1,"aw"
	.align	2
	.type	my_led_1, %object
	.size	my_led_1, 8
my_led_1:
	.word	my_led_1_timings
	.word	my_led_1_timer_data
	.section	.rodata.BATT_MEAS_VOLTAGE_TO_SOC,"a"
	.align	2
	.type	BATT_MEAS_VOLTAGE_TO_SOC, %object
	.size	BATT_MEAS_VOLTAGE_TO_SOC, 111
BATT_MEAS_VOLTAGE_TO_SOC:
	.byte	0
	.byte	0
	.byte	1
	.byte	1
	.byte	1
	.byte	1
	.byte	1
	.byte	1
	.byte	1
	.byte	1
	.byte	1
	.byte	1
	.byte	1
	.byte	1
	.byte	1
	.byte	1
	.byte	1
	.byte	1
	.byte	1
	.byte	2
	.byte	2
	.byte	2
	.byte	2
	.byte	2
	.byte	2
	.byte	2
	.byte	2
	.byte	2
	.byte	3
	.byte	3
	.byte	3
	.byte	3
	.byte	3
	.byte	3
	.byte	3
	.byte	4
	.byte	4
	.byte	4
	.byte	4
	.byte	4
	.byte	4
	.byte	5
	.byte	5
	.byte	5
	.byte	6
	.byte	6
	.byte	7
	.byte	7
	.byte	8
	.byte	8
	.byte	9
	.byte	9
	.byte	10
	.byte	11
	.byte	12
	.byte	13
	.byte	13
	.byte	14
	.byte	15
	.byte	16
	.byte	18
	.byte	19
	.byte	22
	.byte	25
	.byte	28
	.byte	32
	.byte	36
	.byte	40
	.byte	44
	.byte	47
	.byte	51
	.byte	53
	.byte	56
	.byte	58
	.byte	60
	.byte	62
	.byte	64
	.byte	66
	.byte	67
	.byte	69
	.byte	71
	.byte	72
	.byte	74
	.byte	76
	.byte	77
	.byte	79
	.byte	81
	.byte	82
	.byte	84
	.byte	85
	.byte	85
	.byte	86
	.byte	86
	.byte	86
	.byte	87
	.byte	88
	.byte	88
	.byte	89
	.byte	90
	.byte	91
	.byte	91
	.byte	92
	.byte	93
	.byte	94
	.byte	95
	.byte	96
	.byte	97
	.byte	98
	.byte	99
	.byte	100
	.byte	100
	.section	.rodata.m_twi_sensors,"a"
	.align	2
	.type	m_twi_sensors, %object
	.size	m_twi_sensors, 8
m_twi_sensors:
	.word	1073754112
	.byte	0
	.byte	0
	.space	2
	.section	.bss.m_ble_service_handles,"aw",%nobits
	.align	2
	.type	m_ble_service_handles, %object
	.size	m_ble_service_handles, 40
m_ble_service_handles:
	.space	40
	.section .rodata
	.align	2
.LC0:
	.ascii	"\033[1;31mmain          :ERROR: id = %d, pc = %d, f"
	.ascii	"ile = %s, line number: %d, error code = %d = %s \015"
	.ascii	"\012\000"
	.section	.text.app_error_fault_handler,"ax",%progbits
	.align	1
	.global	app_error_fault_handler
	.syntax unified
	.thumb
	.thumb_func
	.fpu fpv4-sp-d16
	.type	app_error_fault_handler, %function
app_error_fault_handler:
.LFB367:
	.file 11 "C:\\Nordic\\SDK\\Nordic-Thingy52-FW-XpertRide\\project\\pca20020_s132-XpertRide_v2\\main.c"
	.loc 11 93 1
	@ args = 0, pretend = 0, frame = 24
	@ frame_needed = 0, uses_anonymous_args = 0
	push	{r4, r5, r6, lr}
.LCFI15:
	sub	sp, sp, #40
.LCFI16:
	str	r0, [sp, #28]
	str	r1, [sp, #24]
	str	r2, [sp, #20]
	.loc 11 95 24
	ldr	r3, [sp, #20]
	str	r3, [sp, #36]
	.loc 11 96 9
	ldr	r3, [sp, #36]
	ldr	r3, [r3, #4]
	mov	r0, r3
	bl	nrf_log_push
	mov	r5, r0
	ldr	r3, [sp, #36]
	ldrh	r3, [r3]
	mov	r6, r3
	ldr	r3, [sp, #36]
	ldr	r4, [r3, #8]
	ldr	r3, [sp, #36]
	ldr	r3, [r3, #8]
	mov	r0, r3
	bl	nrf_strerror_find
	mov	r3, r0
	mov	r0, r3
	bl	nrf_log_push
	mov	r3, r0
	str	r3, [sp, #12]
	str	r4, [sp, #8]
	str	r6, [sp, #4]
	str	r5, [sp]
	ldr	r3, [sp, #24]
	ldr	r2, [sp, #28]
	ldr	r1, .L136
	movs	r0, #1
	bl	nrf_log_frontend_std_6
	.loc 11 100 11
	movs	r0, #2
	bl	m_ui_led_set_event
	.loc 11 102 5
	movs	r0, #5
	bl	nrf_delay_ms
	.loc 11 109 5
	ldr	r2, [sp, #20]
	ldr	r1, [sp, #24]
	ldr	r0, [sp, #28]
	bl	app_error_save_and_stop
	.loc 11 110 1
	nop
	add	sp, sp, #40
.LCFI17:
	@ sp needed
	pop	{r4, r5, r6, pc}
.L137:
	.align	2
.L136:
	.word	.LC0
.LFE367:
	.size	app_error_fault_handler, .-app_error_fault_handler
	.section	.text.assert_nrf_callback,"ax",%progbits
	.align	1
	.global	assert_nrf_callback
	.syntax unified
	.thumb
	.thumb_func
	.fpu fpv4-sp-d16
	.type	assert_nrf_callback, %function
assert_nrf_callback:
.LFB368:
	.loc 11 123 1
	@ args = 0, pretend = 0, frame = 8
	@ frame_needed = 0, uses_anonymous_args = 0
	push	{lr}
.LCFI18:
	sub	sp, sp, #12
.LCFI19:
	mov	r3, r0
	str	r1, [sp]
	strh	r3, [sp, #6]	@ movhi
	.loc 11 124 5
	ldrh	r3, [sp, #6]
	ldr	r2, [sp]
	mov	r1, r3
	ldr	r0, .L139
	bl	app_error_handler
	.loc 11 125 1
	nop
	add	sp, sp, #12
.LCFI20:
	@ sp needed
	ldr	pc, [sp], #4
.L140:
	.align	2
.L139:
	.word	-559038737
.LFE368:
	.size	assert_nrf_callback, .-assert_nrf_callback
	.section .rodata
	.align	2
.LC1:
	.ascii	"\033[0mmain          :INFO:Entering sleep mode \015"
	.ascii	"\012\000"
	.align	2
.LC2:
	.ascii	"C:\\Nordic\\SDK\\Nordic-Thingy52-FW-XpertRide\\proj"
	.ascii	"ect\\pca20020_s132-XpertRide_v2\\main.c\000"
	.align	2
.LC3:
	.ascii	"\033[1;33mmain          :WARNING:sd_power_system_of"
	.ascii	"f() returned. -Probably due to debugger being used."
	.ascii	" Instructions will still run. \015\012\000"
	.align	2
.LC4:
	.ascii	"\033[1;33mmain          :WARNING:Exec stopped, busy"
	.ascii	" wait \015\012\000"
	.section	.text.sleep_mode_enter,"ax",%progbits
	.align	1
	.syntax unified
	.thumb
	.thumb_func
	.fpu fpv4-sp-d16
	.type	sleep_mode_enter, %function
sleep_mode_enter:
.LFB369:
	.loc 11 132 1
	@ args = 0, pretend = 0, frame = 16
	@ frame_needed = 0, uses_anonymous_args = 0
	push	{lr}
.LCFI21:
	sub	sp, sp, #20
.LCFI22:
	.loc 11 135 5
	ldr	r1, .L149
	movs	r0, #3
	bl	nrf_log_frontend_std_0
	.loc 11 136 16
	movs	r0, #1
	bl	m_motion_sleep_prepare
	str	r0, [sp, #12]
.LBB21:
	.loc 11 137 5
	ldr	r3, [sp, #12]
	str	r3, [sp, #8]
	ldr	r3, [sp, #8]
	cmp	r3, #0
	beq	.L142
	.loc 11 137 5 is_stmt 0 discriminator 1
	ldr	r2, .L149+4
	movs	r1, #137
	ldr	r0, [sp, #8]
	bl	app_error_handler
.L142:
.LBE21:
	.loc 11 139 16 is_stmt 1
	bl	support_func_configure_io_shutdown
	str	r0, [sp, #12]
.LBB22:
	.loc 11 140 5
	ldr	r3, [sp, #12]
	str	r3, [sp, #4]
	ldr	r3, [sp, #4]
	cmp	r3, #0
	beq	.L143
	.loc 11 140 5 is_stmt 0 discriminator 1
	ldr	r2, .L149+4
	movs	r1, #140
	ldr	r0, [sp, #4]
	bl	app_error_handler
.L143:
.LBE22:
	.loc 11 143 5 is_stmt 1
	movs	r2, #3
	movs	r1, #3
	movs	r0, #11
	bl	nrf_gpio_cfg_sense_input
	.loc 11 145 5
	movs	r2, #2
	movs	r1, #0
	movs	r0, #12
	bl	nrf_gpio_cfg_sense_input
	.loc 11 148 5
	movs	r0, #5
	bl	nrf_delay_ms
	.loc 11 150 16
	bl	sd_power_system_off
	str	r0, [sp, #12]
	.loc 11 151 5
	ldr	r1, .L149+8
	movs	r0, #2
	bl	nrf_log_frontend_std_0
	.loc 11 155 13
	bl	support_func_sys_halt_debug_enabled
	mov	r3, r0
	.loc 11 155 12
	eor	r3, r3, #1
	uxtb	r3, r3
	.loc 11 155 11
	cmp	r3, #0
	beq	.L144
.LBB23:
	.loc 11 157 13
	ldr	r3, [sp, #12]
	str	r3, [sp]
	ldr	r3, [sp]
	cmp	r3, #0
	beq	.L148
	.loc 11 157 13 is_stmt 0 discriminator 1
	ldr	r2, .L149+4
	movs	r1, #157
	ldr	r0, [sp]
	bl	app_error_handler
.LBE23:
	.loc 11 172 1 is_stmt 1 discriminator 1
	b	.L148
.L144:
	.loc 11 161 13 discriminator 1
	ldr	r1, .L149+12
	movs	r0, #2
	bl	nrf_log_frontend_std_0
.L147:
	.loc 11 164 18 discriminator 1
	b	.L147
.L148:
	.loc 11 172 1
	nop
	add	sp, sp, #20
.LCFI23:
	@ sp needed
	ldr	pc, [sp], #4
.L150:
	.align	2
.L149:
	.word	.LC1
	.word	.LC2
	.word	.LC3
	.word	.LC4
.LFE369:
	.size	sleep_mode_enter, .-sleep_mode_enter
	.section	.text.power_manage,"ax",%progbits
	.align	1
	.syntax unified
	.thumb
	.thumb_func
	.fpu fpv4-sp-d16
	.type	power_manage, %function
power_manage:
.LFB370:
	.loc 11 179 1
	@ args = 0, pretend = 0, frame = 24
	@ frame_needed = 0, uses_anonymous_args = 0
	push	{lr}
.LCFI24:
	sub	sp, sp, #28
.LCFI25:
.LBB24:
.LBB25:
	.loc 2 320 3
	.loc 2 321 3
	.syntax unified
@ 321 "C:/Users/arnau/AppData/Local/SEGGER/SEGGER Embedded Studio/v3/packages/CMSIS_4/CMSIS/Include/cmsis_gcc.h" 1
	VMRS r3, fpscr
@ 0 "" 2
	.thumb
	.syntax unified
	str	r3, [sp, #4]
	.loc 2 322 3
	.loc 2 323 9
	ldr	r3, [sp, #4]
.LBE25:
.LBE24:
	.loc 11 180 5
	bic	r3, r3, #159
	str	r3, [sp, #8]
.LBB26:
.LBB27:
	.loc 2 339 3
	.loc 2 343 3
	ldr	r3, [sp, #8]
	.syntax unified
@ 343 "C:/Users/arnau/AppData/Local/SEGGER/SEGGER Embedded Studio/v3/packages/CMSIS_4/CMSIS/Include/cmsis_gcc.h" 1
	VMSR fpscr, r3
@ 0 "" 2
	.loc 2 345 3
	.thumb
	.syntax unified
.LBE27:
.LBE26:
.LBB28:
.LBB29:
	.loc 2 320 3
	.loc 2 321 3
	.syntax unified
@ 321 "C:/Users/arnau/AppData/Local/SEGGER/SEGGER Embedded Studio/v3/packages/CMSIS_4/CMSIS/Include/cmsis_gcc.h" 1
	VMRS r3, fpscr
@ 0 "" 2
	.thumb
	.syntax unified
	str	r3, [sp, #12]
	.loc 2 322 3
.LBE29:
.LBE28:
	.loc 11 182 5
	movs	r0, #38
	bl	NVIC_ClearPendingIRQ
	.loc 11 184 25
	bl	sd_app_evt_wait
	str	r0, [sp, #20]
.LBB30:
	.loc 11 185 5
	ldr	r3, [sp, #20]
	str	r3, [sp, #16]
	ldr	r3, [sp, #16]
	cmp	r3, #0
	beq	.L155
	.loc 11 185 5 is_stmt 0 discriminator 1
	ldr	r2, .L156
	movs	r1, #185
	ldr	r0, [sp, #16]
	bl	app_error_handler
.L155:
.LBE30:
	.loc 11 186 1 is_stmt 1
	nop
	add	sp, sp, #28
.LCFI26:
	@ sp needed
	ldr	pc, [sp], #4
.L157:
	.align	2
.L156:
	.word	.LC2
.LFE370:
	.size	power_manage, .-power_manage
	.section .rodata
	.align	2
.LC5:
	.ascii	"\033[0mmain          :INFO:Voltage: %d V, Charge: %"
	.ascii	"d %%, Event type: %d \015\012\000"
	.align	2
.LC6:
	.ascii	"\033[1;33mmain          :WARNING:Battery voltage lo"
	.ascii	"w, shutting down Thingy. Connect USB to charge \015"
	.ascii	"\012\000"
	.section	.text.m_batt_meas_handler,"ax",%progbits
	.align	1
	.syntax unified
	.thumb
	.thumb_func
	.fpu fpv4-sp-d16
	.type	m_batt_meas_handler, %function
m_batt_meas_handler:
.LFB371:
	.loc 11 192 1
	@ args = 0, pretend = 0, frame = 24
	@ frame_needed = 0, uses_anonymous_args = 0
	push	{lr}
.LCFI27:
	sub	sp, sp, #36
.LCFI28:
	str	r0, [sp, #12]
	.loc 11 193 5
	ldr	r3, [sp, #12]
	ldrh	r3, [r3, #2]
	mov	r2, r3
	ldr	r3, [sp, #12]
	ldrb	r3, [r3, #4]	@ zero_extendqisi2
	mov	r1, r3
	ldr	r3, [sp, #12]
	ldrb	r3, [r3]	@ zero_extendqisi2
	str	r3, [sp]
	mov	r3, r1
	ldr	r1, .L165
	movs	r0, #3
	bl	nrf_log_frontend_std_3
	.loc 11 196 8
	ldr	r3, [sp, #12]
	cmp	r3, #0
	beq	.L164
	.loc 11 198 30
	ldr	r3, [sp, #12]
	ldrb	r3, [r3]	@ zero_extendqisi2
	.loc 11 198 11
	cmp	r3, #1
	bne	.L164
.LBB31:
	.loc 11 202 24
	bl	support_func_configure_io_shutdown
	str	r0, [sp, #28]
.LBB32:
	.loc 11 203 13
	ldr	r3, [sp, #28]
	str	r3, [sp, #24]
	ldr	r3, [sp, #24]
	cmp	r3, #0
	beq	.L160
	.loc 11 203 13 is_stmt 0 discriminator 1
	ldr	r2, .L165+4
	movs	r1, #203
	ldr	r0, [sp, #24]
	bl	app_error_handler
.L160:
.LBE32:
	.loc 11 206 13 is_stmt 1
	movs	r2, #2
	movs	r1, #0
	movs	r0, #13
	bl	nrf_gpio_cfg_sense_input
	.loc 11 208 13
	ldr	r1, .L165+8
	movs	r0, #2
	bl	nrf_log_frontend_std_0
	.loc 11 211 24
	bl	sd_power_system_off
	str	r0, [sp, #28]
	.loc 11 214 21
	bl	support_func_sys_halt_debug_enabled
	mov	r3, r0
	.loc 11 214 20
	eor	r3, r3, #1
	uxtb	r3, r3
	.loc 11 214 19
	cmp	r3, #0
	beq	.L161
.LBB33:
	.loc 11 216 21
	ldr	r3, [sp, #28]
	str	r3, [sp, #20]
	ldr	r3, [sp, #20]
	cmp	r3, #0
	beq	.L164
	.loc 11 216 21 is_stmt 0 discriminator 1
	ldr	r2, .L165+4
	movs	r1, #216
	ldr	r0, [sp, #20]
	bl	app_error_handler
.LBE33:
.LBE31:
	.loc 11 232 1 is_stmt 1 discriminator 1
	b	.L164
.L161:
.LBB34:
	.loc 11 220 21 discriminator 1
	ldr	r1, .L165+12
	movs	r0, #2
	bl	nrf_log_frontend_std_0
.L163:
	.loc 11 222 26 discriminator 1
	b	.L163
.L164:
.LBE34:
	.loc 11 232 1
	nop
	add	sp, sp, #36
.LCFI29:
	@ sp needed
	ldr	pc, [sp], #4
.L166:
	.align	2
.L165:
	.word	.LC5
	.word	.LC2
	.word	.LC6
	.word	.LC4
.LFE371:
	.size	m_batt_meas_handler, .-m_batt_meas_handler
	.section .rodata
	.align	2
.LC7:
	.ascii	"\033[0mmain          :INFO:\033[1;32mThingy_ble_evt"
	.ascii	"_connected \015\012\000"
	.align	2
.LC8:
	.ascii	"\033[0mmain          :INFO:\033[1;33mThingy_ble_evt"
	.ascii	"_disconnected \015\012\000"
	.align	2
.LC9:
	.ascii	"\033[0mmain          :INFO:\033[1;33mThingy_ble_evt"
	.ascii	"_timeout \015\012\000"
	.section	.text.thingy_ble_evt_handler,"ax",%progbits
	.align	1
	.syntax unified
	.thumb
	.thumb_func
	.fpu fpv4-sp-d16
	.type	thingy_ble_evt_handler, %function
thingy_ble_evt_handler:
.LFB372:
	.loc 11 238 1
	@ args = 0, pretend = 0, frame = 8
	@ frame_needed = 0, uses_anonymous_args = 0
	push	{lr}
.LCFI30:
	sub	sp, sp, #12
.LCFI31:
	str	r0, [sp, #4]
	.loc 11 239 18
	ldr	r3, [sp, #4]
	ldrb	r3, [r3]	@ zero_extendqisi2
	.loc 11 239 5
	cmp	r3, #1
	beq	.L171
	cmp	r3, #2
	beq	.L172
	cmp	r3, #0
	bne	.L173
	.loc 11 242 13
	ldr	r1, .L174
	movs	r0, #3
	bl	nrf_log_frontend_std_0
	.loc 11 243 13
	b	.L170
.L171:
	.loc 11 246 13 discriminator 1
	ldr	r1, .L174+4
	movs	r0, #3
	bl	nrf_log_frontend_std_0
	.loc 11 248 13 discriminator 1
	movs	r0, #5
	bl	nrf_delay_ms
	.loc 11 249 13 discriminator 1
	bl	NVIC_SystemReset
	.loc 11 250 13 discriminator 1
	b	.L170
.L172:
	.loc 11 253 13 discriminator 1
	ldr	r1, .L174+8
	movs	r0, #3
	bl	nrf_log_frontend_std_0
	.loc 11 255 13 discriminator 1
	bl	NVIC_SystemReset
	.loc 11 256 13 discriminator 1
	nop
.L170:
.L173:
	.loc 11 258 1
	nop
	add	sp, sp, #12
.LCFI32:
	@ sp needed
	ldr	pc, [sp], #4
.L175:
	.align	2
.L174:
	.word	.LC7
	.word	.LC8
	.word	.LC9
.LFE372:
	.size	thingy_ble_evt_handler, .-thingy_ble_evt_handler
	.section	.text.thingy_init,"ax",%progbits
	.align	1
	.syntax unified
	.thumb
	.thumb_func
	.fpu fpv4-sp-d16
	.type	thingy_init, %function
thingy_init:
.LFB373:
	.loc 11 264 1
	@ args = 0, pretend = 0, frame = 104
	@ frame_needed = 0, uses_anonymous_args = 0
	push	{lr}
.LCFI33:
	sub	sp, sp, #108
.LCFI34:
	.loc 11 270 30
	add	r3, sp, #4
	movs	r2, #36
	movs	r1, #0
	mov	r0, r3
	bl	memset
	movs	r3, #28
	strb	r3, [sp, #10]
	movs	r3, #5
	strb	r3, [sp, #11]
	movs	r3, #13
	strb	r3, [sp, #12]
	movs	r3, #17
	strb	r3, [sp, #13]
	movs	r3, #1
	strb	r3, [sp, #14]
	movs	r3, #4
	strb	r3, [sp, #15]
	movw	r3, #3100
	strh	r3, [sp, #16]	@ movhi
	movw	r3, #4190
	strh	r3, [sp, #18]	@ movhi
	ldr	r3, .L187
	str	r3, [sp, #20]
	ldr	r3, .L187+4
	str	r3, [sp, #24]
	movs	r3, #111
	strh	r3, [sp, #28]	@ movhi
	movw	r3, #3100
	strh	r3, [sp, #30]	@ movhi
	movs	r3, #10
	strb	r3, [sp, #32]
	ldr	r3, .L187+8
	str	r3, [sp, #36]
	.loc 11 273 16
	movs	r0, #15
	bl	twi_manager_init
	str	r0, [sp, #100]
.LBB35:
	.loc 11 274 5
	ldr	r3, [sp, #100]
	str	r3, [sp, #96]
	ldr	r3, [sp, #96]
	cmp	r3, #0
	beq	.L177
	.loc 11 274 5 is_stmt 0 discriminator 1
	ldr	r2, .L187+12
	mov	r1, #274
	ldr	r0, [sp, #96]
	bl	app_error_handler
.L177:
.LBE35:
	.loc 11 277 30 is_stmt 1
	ldr	r3, .L187+16
	str	r3, [sp, #60]
	.loc 11 278 16
	add	r3, sp, #60
	mov	r1, r3
	ldr	r0, .L187+20
	bl	m_ui_init
	str	r0, [sp, #100]
.LBB36:
	.loc 11 280 5
	ldr	r3, [sp, #100]
	str	r3, [sp, #92]
	ldr	r3, [sp, #92]
	cmp	r3, #0
	beq	.L178
	.loc 11 280 5 is_stmt 0 discriminator 1
	ldr	r2, .L187+12
	mov	r1, #280
	ldr	r0, [sp, #92]
	bl	app_error_handler
.L178:
.LBE36:
	.loc 11 283 31 is_stmt 1
	ldr	r3, .L187+16
	str	r3, [sp, #56]
	.loc 11 284 16
	add	r3, sp, #56
	mov	r1, r3
	ldr	r0, .L187+24
	bl	m_environment_init
	str	r0, [sp, #100]
.LBB37:
	.loc 11 286 5
	ldr	r3, [sp, #100]
	str	r3, [sp, #88]
	ldr	r3, [sp, #88]
	cmp	r3, #0
	beq	.L179
	.loc 11 286 5 is_stmt 0 discriminator 1
	ldr	r2, .L187+12
	mov	r1, #286
	ldr	r0, [sp, #88]
	bl	app_error_handler
.L179:
.LBE37:
	.loc 11 289 34 is_stmt 1
	ldr	r3, .L187+16
	str	r3, [sp, #52]
	.loc 11 291 16
	add	r3, sp, #52
	mov	r1, r3
	ldr	r0, .L187+28
	bl	m_motion_init
	str	r0, [sp, #100]
.LBB38:
	.loc 11 293 5
	ldr	r3, [sp, #100]
	str	r3, [sp, #84]
	ldr	r3, [sp, #84]
	cmp	r3, #0
	beq	.L180
	.loc 11 293 5 is_stmt 0 discriminator 1
	ldr	r2, .L187+12
	movw	r1, #293
	ldr	r0, [sp, #84]
	bl	app_error_handler
.L180:
.LBE38:
	.loc 11 295 16 is_stmt 1
	ldr	r0, .L187+32
	bl	m_sound_init
	str	r0, [sp, #100]
.LBB39:
	.loc 11 296 5
	ldr	r3, [sp, #100]
	str	r3, [sp, #80]
	ldr	r3, [sp, #80]
	cmp	r3, #0
	beq	.L181
	.loc 11 296 5 is_stmt 0 discriminator 1
	ldr	r2, .L187+12
	mov	r1, #296
	ldr	r0, [sp, #80]
	bl	app_error_handler
.L181:
.LBE39:
	.loc 11 299 32 is_stmt 1
	ldr	r3, .L187+36
	str	r3, [sp, #4]
	.loc 11 300 16
	add	r3, sp, #4
	mov	r1, r3
	ldr	r0, .L187+40
	bl	m_batt_meas_init
	str	r0, [sp, #100]
.LBB40:
	.loc 11 301 5
	ldr	r3, [sp, #100]
	str	r3, [sp, #76]
	ldr	r3, [sp, #76]
	cmp	r3, #0
	beq	.L182
	.loc 11 301 5 is_stmt 0 discriminator 1
	ldr	r2, .L187+12
	movw	r1, #301
	ldr	r0, [sp, #76]
	bl	app_error_handler
.L182:
.LBE40:
	.loc 11 303 16 is_stmt 1
	movw	r0, #5000
	bl	m_batt_meas_enable
	str	r0, [sp, #100]
.LBB41:
	.loc 11 304 5
	ldr	r3, [sp, #100]
	str	r3, [sp, #72]
	ldr	r3, [sp, #72]
	cmp	r3, #0
	beq	.L183
	.loc 11 304 5 is_stmt 0 discriminator 1
	ldr	r2, .L187+12
	mov	r1, #304
	ldr	r0, [sp, #72]
	bl	app_error_handler
.L183:
.LBE41:
	.loc 11 307 34 is_stmt 1
	ldr	r3, .L187+44
	str	r3, [sp, #40]
	.loc 11 308 34
	ldr	r3, .L187+24
	str	r3, [sp, #44]
	.loc 11 309 34
	movs	r3, #5
	str	r3, [sp, #48]
	.loc 11 311 16
	add	r3, sp, #40
	mov	r0, r3
	bl	m_ble_init
	str	r0, [sp, #100]
.LBB42:
	.loc 11 312 5
	ldr	r3, [sp, #100]
	str	r3, [sp, #68]
	ldr	r3, [sp, #68]
	cmp	r3, #0
	beq	.L184
	.loc 11 312 5 is_stmt 0 discriminator 1
	ldr	r2, .L187+12
	mov	r1, #312
	ldr	r0, [sp, #68]
	bl	app_error_handler
.L184:
.LBE42:
	.loc 11 314 16 is_stmt 1
	movs	r0, #1
	bl	m_ui_led_set_event
	str	r0, [sp, #100]
.LBB43:
	.loc 11 315 5
	ldr	r3, [sp, #100]
	str	r3, [sp, #64]
	ldr	r3, [sp, #64]
	cmp	r3, #0
	beq	.L186
	.loc 11 315 5 is_stmt 0 discriminator 1
	ldr	r2, .L187+12
	movw	r1, #315
	ldr	r0, [sp, #64]
	bl	app_error_handler
.L186:
.LBE43:
	.loc 11 316 1 is_stmt 1
	nop
	add	sp, sp, #108
.LCFI35:
	@ sp needed
	ldr	pc, [sp], #4
.L188:
	.align	2
.L187:
	.word	1500000
	.word	180000
	.word	BATT_MEAS_VOLTAGE_TO_SOC
	.word	.LC2
	.word	m_twi_sensors
	.word	m_ble_service_handles+16
	.word	m_ble_service_handles
	.word	m_ble_service_handles+8
	.word	m_ble_service_handles+24
	.word	m_batt_meas_handler
	.word	m_ble_service_handles+32
	.word	thingy_ble_evt_handler
.LFE373:
	.size	thingy_init, .-thingy_init
	.section	.text.board_init,"ax",%progbits
	.align	1
	.syntax unified
	.thumb
	.thumb_func
	.fpu fpv4-sp-d16
	.type	board_init, %function
board_init:
.LFB374:
	.loc 11 320 1
	@ args = 0, pretend = 0, frame = 16
	@ frame_needed = 0, uses_anonymous_args = 0
	push	{lr}
.LCFI36:
	sub	sp, sp, #20
.LCFI37:
	.loc 11 347 25
	ldr	r3, .L191
	str	r3, [sp, #4]
	.loc 11 349 16
	add	r3, sp, #4
	mov	r0, r3
	bl	support_func_configure_io_startup
	str	r0, [sp, #12]
.LBB44:
	.loc 11 350 5
	ldr	r3, [sp, #12]
	str	r3, [sp, #8]
	ldr	r3, [sp, #8]
	cmp	r3, #0
	beq	.L190
	.loc 11 350 5 is_stmt 0 discriminator 1
	ldr	r2, .L191+4
	mov	r1, #350
	ldr	r0, [sp, #8]
	bl	app_error_handler
.L190:
.LBE44:
	.loc 11 352 5 is_stmt 1
	movs	r0, #100
	bl	nrf_delay_ms
	.loc 11 353 1
	nop
	add	sp, sp, #20
.LCFI38:
	@ sp needed
	ldr	pc, [sp], #4
.L192:
	.align	2
.L191:
	.word	sx1509_cfg.11960
	.word	.LC2
.LFE374:
	.size	board_init, .-board_init
	.section	.text.shield_init,"ax",%progbits
	.align	1
	.syntax unified
	.thumb
	.thumb_func
	.fpu fpv4-sp-d16
	.type	shield_init, %function
shield_init:
.LFB375:
	.loc 11 356 1
	@ args = 0, pretend = 0, frame = 32
	@ frame_needed = 0, uses_anonymous_args = 0
	push	{lr}
.LCFI39:
	sub	sp, sp, #36
.LCFI40:
	.loc 11 369 39
	ldr	r3, .L198
	str	r3, [sp, #8]
	.loc 11 370 34
	ldr	r3, .L198+4
	str	r3, [sp, #12]
	.loc 11 372 16
	add	r3, sp, #8
	mov	r0, r3
	bl	drv_ADG728_init
	str	r0, [sp, #28]
.LBB45:
	.loc 11 373 5
	ldr	r3, [sp, #28]
	str	r3, [sp, #24]
	ldr	r3, [sp, #24]
	cmp	r3, #0
	beq	.L194
	.loc 11 373 5 is_stmt 0 discriminator 1
	ldr	r2, .L198+8
	movw	r1, #373
	ldr	r0, [sp, #24]
	bl	app_error_handler
.L194:
.LBE45:
	.loc 11 375 39 is_stmt 1
	ldr	r3, .L198
	str	r3, [sp]
	.loc 11 376 34
	ldr	r3, .L198+4
	str	r3, [sp, #4]
	.loc 11 378 16
	mov	r3, sp
	mov	r0, r3
	bl	drv_AD5245_init
	str	r0, [sp, #28]
.LBB46:
	.loc 11 379 5
	ldr	r3, [sp, #28]
	str	r3, [sp, #20]
	ldr	r3, [sp, #20]
	cmp	r3, #0
	beq	.L195
	.loc 11 379 5 is_stmt 0 discriminator 1
	ldr	r2, .L198+8
	movw	r1, #379
	ldr	r0, [sp, #20]
	bl	app_error_handler
.L195:
.LBE46:
	.loc 11 381 16 is_stmt 1
	bl	shield_manager_init
	str	r0, [sp, #28]
.LBB47:
	.loc 11 382 5
	ldr	r3, [sp, #28]
	str	r3, [sp, #16]
	ldr	r3, [sp, #16]
	cmp	r3, #0
	beq	.L197
	.loc 11 382 5 is_stmt 0 discriminator 1
	ldr	r2, .L198+8
	mov	r1, #382
	ldr	r0, [sp, #16]
	bl	app_error_handler
.L197:
.LBE47:
	.loc 11 384 1 is_stmt 1
	nop
	add	sp, sp, #36
.LCFI41:
	@ sp needed
	ldr	pc, [sp], #4
.L199:
	.align	2
.L198:
	.word	m_twi_sensors
	.word	twi_config.11968
	.word	.LC2
.LFE375:
	.size	shield_init, .-shield_init
	.section .rodata
	.align	2
.LC10:
	.ascii	"\033[0mmain          :INFO:\033[1;32m===== Thingy s"
	.ascii	"tarted!!! =====\015\012\000"
	.section	.text.main,"ax",%progbits
	.align	1
	.global	main
	.syntax unified
	.thumb
	.thumb_func
	.fpu fpv4-sp-d16
	.type	main, %function
main:
.LFB376:
	.loc 11 425 2
	@ args = 0, pretend = 0, frame = 24
	@ frame_needed = 0, uses_anonymous_args = 0
	push	{lr}
.LCFI42:
	sub	sp, sp, #28
.LCFI43:
	.loc 11 427 16
	movs	r0, #0
	bl	nrf_log_init
	str	r0, [sp, #20]
.LBB48:
	.loc 11 428 5
	ldr	r3, [sp, #20]
	str	r3, [sp, #16]
	ldr	r3, [sp, #16]
	cmp	r3, #0
	beq	.L205
	.loc 11 428 5 is_stmt 0 discriminator 1
	ldr	r2, .L206
	mov	r1, #428
	ldr	r0, [sp, #16]
	bl	app_error_handler
.L205:
.LBE48:
	.loc 11 431 5 is_stmt 1 discriminator 1
	ldr	r1, .L206+4
	movs	r0, #3
	bl	nrf_log_frontend_std_0
.LBB49:
	.loc 11 434 5 discriminator 1
	ldr	r2, .L206+8
	movs	r1, #60
	movs	r0, #8
	bl	app_sched_init
	str	r0, [sp, #12]
.LBB50:
	ldr	r3, [sp, #12]
	str	r3, [sp, #8]
	ldr	r3, [sp, #8]
	cmp	r3, #0
	beq	.L202
	ldr	r2, .L206
	mov	r1, #434
	ldr	r0, [sp, #8]
	bl	app_error_handler
.L202:
.LBE50:
.LBE49:
	.loc 11 435 16
	bl	app_timer_init
	str	r0, [sp, #20]
.LBB51:
	.loc 11 436 5
	ldr	r3, [sp, #20]
	str	r3, [sp, #4]
	ldr	r3, [sp, #4]
	cmp	r3, #0
	beq	.L203
	.loc 11 436 5 is_stmt 0 discriminator 1
	ldr	r2, .L206
	mov	r1, #436
	ldr	r0, [sp, #4]
	bl	app_error_handler
.L203:
.LBE51:
	.loc 11 439 5 is_stmt 1
	bl	board_init
	.loc 11 440 5
	bl	thingy_init
	.loc 11 441 5
	bl	shield_init
	.loc 11 443 5
	bl	state_machine_init
.L204:
	.loc 11 454 9
	bl	app_sched_execute
	.loc 11 458 13
	bl	power_manage
	.loc 11 454 9
	b	.L204
.L207:
	.align	2
.L206:
	.word	.LC2
	.word	.LC10
	.word	APP_SCHED_BUF.11977
.LFE376:
	.size	main, .-main
	.section	.rodata.sx1509_cfg.11960,"a"
	.align	2
	.type	sx1509_cfg.11960, %object
	.size	sx1509_cfg.11960, 12
sx1509_cfg.11960:
	.byte	62
	.space	3
	.word	m_twi_sensors
	.word	twi_config.11959
	.section	.rodata.twi_config.11959,"a"
	.align	2
	.type	twi_config.11959, %object
	.size	twi_config.11959, 16
twi_config.11959:
	.word	8
	.word	7
	.word	107479040
	.byte	6
	.space	3
	.section	.rodata.twi_config.11968,"a"
	.align	2
	.type	twi_config.11968, %object
	.size	twi_config.11968, 16
twi_config.11968:
	.word	15
	.word	14
	.word	107479040
	.byte	6
	.space	3
	.section	.bss.APP_SCHED_BUF.11977,"aw",%nobits
	.align	2
	.type	APP_SCHED_BUF.11977, %object
	.size	APP_SCHED_BUF.11977, 976
APP_SCHED_BUF.11977:
	.space	976
	.section	.debug_frame,"",%progbits
.Lframe0:
	.4byte	.LECIE0-.LSCIE0
.LSCIE0:
	.4byte	0xffffffff
	.byte	0x3
	.ascii	"\000"
	.uleb128 0x1
	.sleb128 -4
	.uleb128 0xe
	.byte	0xc
	.uleb128 0xd
	.uleb128 0
	.align	2
.LECIE0:
.LSFDE0:
	.4byte	.LEFDE0-.LASFDE0
.LASFDE0:
	.4byte	.Lframe0
	.4byte	.LFB112
	.4byte	.LFE112-.LFB112
	.byte	0x4
	.4byte	.LCFI0-.LFB112
	.byte	0xe
	.uleb128 0x8
	.byte	0x4
	.4byte	.LCFI1-.LCFI0
	.byte	0xe
	.uleb128 0
	.align	2
.LEFDE0:
.LSFDE2:
	.4byte	.LEFDE2-.LASFDE2
.LASFDE2:
	.4byte	.Lframe0
	.4byte	.LFB118
	.4byte	.LFE118-.LFB118
	.align	2
.LEFDE2:
.LSFDE4:
	.4byte	.LEFDE4-.LASFDE4
.LASFDE4:
	.4byte	.Lframe0
	.4byte	.LFB124
	.4byte	.LFE124-.LFB124
	.align	2
.LEFDE4:
.LSFDE6:
	.4byte	.LEFDE6-.LASFDE6
.LASFDE6:
	.4byte	.Lframe0
	.4byte	.LFB125
	.4byte	.LFE125-.LFB125
	.align	2
.LEFDE6:
.LSFDE8:
	.4byte	.LEFDE8-.LASFDE8
.LASFDE8:
	.4byte	.Lframe0
	.4byte	.LFB126
	.4byte	.LFE126-.LFB126
	.align	2
.LEFDE8:
.LSFDE10:
	.4byte	.LEFDE10-.LASFDE10
.LASFDE10:
	.4byte	.Lframe0
	.4byte	.LFB127
	.4byte	.LFE127-.LFB127
	.align	2
.LEFDE10:
.LSFDE12:
	.4byte	.LEFDE12-.LASFDE12
.LASFDE12:
	.4byte	.Lframe0
	.4byte	.LFB128
	.4byte	.LFE128-.LFB128
	.align	2
.LEFDE12:
.LSFDE14:
	.4byte	.LEFDE14-.LASFDE14
.LASFDE14:
	.4byte	.Lframe0
	.4byte	.LFB129
	.4byte	.LFE129-.LFB129
	.align	2
.LEFDE14:
.LSFDE16:
	.4byte	.LEFDE16-.LASFDE16
.LASFDE16:
	.4byte	.Lframe0
	.4byte	.LFB130
	.4byte	.LFE130-.LFB130
	.align	2
.LEFDE16:
.LSFDE18:
	.4byte	.LEFDE18-.LASFDE18
.LASFDE18:
	.4byte	.Lframe0
	.4byte	.LFB131
	.4byte	.LFE131-.LFB131
	.align	2
.LEFDE18:
.LSFDE20:
	.4byte	.LEFDE20-.LASFDE20
.LASFDE20:
	.4byte	.Lframe0
	.4byte	.LFB132
	.4byte	.LFE132-.LFB132
	.align	2
.LEFDE20:
.LSFDE22:
	.4byte	.LEFDE22-.LASFDE22
.LASFDE22:
	.4byte	.Lframe0
	.4byte	.LFB133
	.4byte	.LFE133-.LFB133
	.align	2
.LEFDE22:
.LSFDE24:
	.4byte	.LEFDE24-.LASFDE24
.LASFDE24:
	.4byte	.Lframe0
	.4byte	.LFB134
	.4byte	.LFE134-.LFB134
	.align	2
.LEFDE24:
.LSFDE26:
	.4byte	.LEFDE26-.LASFDE26
.LASFDE26:
	.4byte	.Lframe0
	.4byte	.LFB135
	.4byte	.LFE135-.LFB135
	.align	2
.LEFDE26:
.LSFDE28:
	.4byte	.LEFDE28-.LASFDE28
.LASFDE28:
	.4byte	.Lframe0
	.4byte	.LFB136
	.4byte	.LFE136-.LFB136
	.align	2
.LEFDE28:
.LSFDE30:
	.4byte	.LEFDE30-.LASFDE30
.LASFDE30:
	.4byte	.Lframe0
	.4byte	.LFB137
	.4byte	.LFE137-.LFB137
	.align	2
.LEFDE30:
.LSFDE32:
	.4byte	.LEFDE32-.LASFDE32
.LASFDE32:
	.4byte	.Lframe0
	.4byte	.LFB138
	.4byte	.LFE138-.LFB138
	.align	2
.LEFDE32:
.LSFDE34:
	.4byte	.LEFDE34-.LASFDE34
.LASFDE34:
	.4byte	.Lframe0
	.4byte	.LFB139
	.4byte	.LFE139-.LFB139
	.align	2
.LEFDE34:
.LSFDE36:
	.4byte	.LEFDE36-.LASFDE36
.LASFDE36:
	.4byte	.Lframe0
	.4byte	.LFB140
	.4byte	.LFE140-.LFB140
	.align	2
.LEFDE36:
.LSFDE38:
	.4byte	.LEFDE38-.LASFDE38
.LASFDE38:
	.4byte	.Lframe0
	.4byte	.LFB141
	.4byte	.LFE141-.LFB141
	.align	2
.LEFDE38:
.LSFDE40:
	.4byte	.LEFDE40-.LASFDE40
.LASFDE40:
	.4byte	.Lframe0
	.4byte	.LFB142
	.4byte	.LFE142-.LFB142
	.align	2
.LEFDE40:
.LSFDE42:
	.4byte	.LEFDE42-.LASFDE42
.LASFDE42:
	.4byte	.Lframe0
	.4byte	.LFB143
	.4byte	.LFE143-.LFB143
	.align	2
.LEFDE42:
.LSFDE44:
	.4byte	.LEFDE44-.LASFDE44
.LASFDE44:
	.4byte	.Lframe0
	.4byte	.LFB144
	.4byte	.LFE144-.LFB144
	.align	2
.LEFDE44:
.LSFDE46:
	.4byte	.LEFDE46-.LASFDE46
.LASFDE46:
	.4byte	.Lframe0
	.4byte	.LFB145
	.4byte	.LFE145-.LFB145
	.align	2
.LEFDE46:
.LSFDE48:
	.4byte	.LEFDE48-.LASFDE48
.LASFDE48:
	.4byte	.Lframe0
	.4byte	.LFB146
	.4byte	.LFE146-.LFB146
	.align	2
.LEFDE48:
.LSFDE50:
	.4byte	.LEFDE50-.LASFDE50
.LASFDE50:
	.4byte	.Lframe0
	.4byte	.LFB147
	.4byte	.LFE147-.LFB147
	.align	2
.LEFDE50:
.LSFDE52:
	.4byte	.LEFDE52-.LASFDE52
.LASFDE52:
	.4byte	.Lframe0
	.4byte	.LFB148
	.4byte	.LFE148-.LFB148
	.align	2
.LEFDE52:
.LSFDE54:
	.4byte	.LEFDE54-.LASFDE54
.LASFDE54:
	.4byte	.Lframe0
	.4byte	.LFB149
	.4byte	.LFE149-.LFB149
	.align	2
.LEFDE54:
.LSFDE56:
	.4byte	.LEFDE56-.LASFDE56
.LASFDE56:
	.4byte	.Lframe0
	.4byte	.LFB150
	.4byte	.LFE150-.LFB150
	.align	2
.LEFDE56:
.LSFDE58:
	.4byte	.LEFDE58-.LASFDE58
.LASFDE58:
	.4byte	.Lframe0
	.4byte	.LFB151
	.4byte	.LFE151-.LFB151
	.align	2
.LEFDE58:
.LSFDE60:
	.4byte	.LEFDE60-.LASFDE60
.LASFDE60:
	.4byte	.Lframe0
	.4byte	.LFB152
	.4byte	.LFE152-.LFB152
	.align	2
.LEFDE60:
.LSFDE62:
	.4byte	.LEFDE62-.LASFDE62
.LASFDE62:
	.4byte	.Lframe0
	.4byte	.LFB153
	.4byte	.LFE153-.LFB153
	.align	2
.LEFDE62:
.LSFDE64:
	.4byte	.LEFDE64-.LASFDE64
.LASFDE64:
	.4byte	.Lframe0
	.4byte	.LFB154
	.4byte	.LFE154-.LFB154
	.align	2
.LEFDE64:
.LSFDE66:
	.4byte	.LEFDE66-.LASFDE66
.LASFDE66:
	.4byte	.Lframe0
	.4byte	.LFB155
	.4byte	.LFE155-.LFB155
	.align	2
.LEFDE66:
.LSFDE68:
	.4byte	.LEFDE68-.LASFDE68
.LASFDE68:
	.4byte	.Lframe0
	.4byte	.LFB156
	.4byte	.LFE156-.LFB156
	.align	2
.LEFDE68:
.LSFDE70:
	.4byte	.LEFDE70-.LASFDE70
.LASFDE70:
	.4byte	.Lframe0
	.4byte	.LFB157
	.4byte	.LFE157-.LFB157
	.align	2
.LEFDE70:
.LSFDE72:
	.4byte	.LEFDE72-.LASFDE72
.LASFDE72:
	.4byte	.Lframe0
	.4byte	.LFB158
	.4byte	.LFE158-.LFB158
	.align	2
.LEFDE72:
.LSFDE74:
	.4byte	.LEFDE74-.LASFDE74
.LASFDE74:
	.4byte	.Lframe0
	.4byte	.LFB159
	.4byte	.LFE159-.LFB159
	.align	2
.LEFDE74:
.LSFDE76:
	.4byte	.LEFDE76-.LASFDE76
.LASFDE76:
	.4byte	.Lframe0
	.4byte	.LFB160
	.4byte	.LFE160-.LFB160
	.align	2
.LEFDE76:
.LSFDE78:
	.4byte	.LEFDE78-.LASFDE78
.LASFDE78:
	.4byte	.Lframe0
	.4byte	.LFB161
	.4byte	.LFE161-.LFB161
	.align	2
.LEFDE78:
.LSFDE80:
	.4byte	.LEFDE80-.LASFDE80
.LASFDE80:
	.4byte	.Lframe0
	.4byte	.LFB162
	.4byte	.LFE162-.LFB162
	.align	2
.LEFDE80:
.LSFDE82:
	.4byte	.LEFDE82-.LASFDE82
.LASFDE82:
	.4byte	.Lframe0
	.4byte	.LFB163
	.4byte	.LFE163-.LFB163
	.align	2
.LEFDE82:
.LSFDE84:
	.4byte	.LEFDE84-.LASFDE84
.LASFDE84:
	.4byte	.Lframe0
	.4byte	.LFB164
	.4byte	.LFE164-.LFB164
	.align	2
.LEFDE84:
.LSFDE86:
	.4byte	.LEFDE86-.LASFDE86
.LASFDE86:
	.4byte	.Lframe0
	.4byte	.LFB165
	.4byte	.LFE165-.LFB165
	.align	2
.LEFDE86:
.LSFDE88:
	.4byte	.LEFDE88-.LASFDE88
.LASFDE88:
	.4byte	.Lframe0
	.4byte	.LFB166
	.4byte	.LFE166-.LFB166
	.align	2
.LEFDE88:
.LSFDE90:
	.4byte	.LEFDE90-.LASFDE90
.LASFDE90:
	.4byte	.Lframe0
	.4byte	.LFB167
	.4byte	.LFE167-.LFB167
	.align	2
.LEFDE90:
.LSFDE92:
	.4byte	.LEFDE92-.LASFDE92
.LASFDE92:
	.4byte	.Lframe0
	.4byte	.LFB168
	.4byte	.LFE168-.LFB168
	.align	2
.LEFDE92:
.LSFDE94:
	.4byte	.LEFDE94-.LASFDE94
.LASFDE94:
	.4byte	.Lframe0
	.4byte	.LFB169
	.4byte	.LFE169-.LFB169
	.align	2
.LEFDE94:
.LSFDE96:
	.4byte	.LEFDE96-.LASFDE96
.LASFDE96:
	.4byte	.Lframe0
	.4byte	.LFB170
	.4byte	.LFE170-.LFB170
	.align	2
.LEFDE96:
.LSFDE98:
	.4byte	.LEFDE98-.LASFDE98
.LASFDE98:
	.4byte	.Lframe0
	.4byte	.LFB172
	.4byte	.LFE172-.LFB172
	.align	2
.LEFDE98:
.LSFDE100:
	.4byte	.LEFDE100-.LASFDE100
.LASFDE100:
	.4byte	.Lframe0
	.4byte	.LFB173
	.4byte	.LFE173-.LFB173
	.align	2
.LEFDE100:
.LSFDE102:
	.4byte	.LEFDE102-.LASFDE102
.LASFDE102:
	.4byte	.Lframe0
	.4byte	.LFB174
	.4byte	.LFE174-.LFB174
	.align	2
.LEFDE102:
.LSFDE104:
	.4byte	.LEFDE104-.LASFDE104
.LASFDE104:
	.4byte	.Lframe0
	.4byte	.LFB175
	.4byte	.LFE175-.LFB175
	.align	2
.LEFDE104:
.LSFDE106:
	.4byte	.LEFDE106-.LASFDE106
.LASFDE106:
	.4byte	.Lframe0
	.4byte	.LFB176
	.4byte	.LFE176-.LFB176
	.align	2
.LEFDE106:
.LSFDE108:
	.4byte	.LEFDE108-.LASFDE108
.LASFDE108:
	.4byte	.Lframe0
	.4byte	.LFB177
	.4byte	.LFE177-.LFB177
	.align	2
.LEFDE108:
.LSFDE110:
	.4byte	.LEFDE110-.LASFDE110
.LASFDE110:
	.4byte	.Lframe0
	.4byte	.LFB178
	.4byte	.LFE178-.LFB178
	.align	2
.LEFDE110:
.LSFDE112:
	.4byte	.LEFDE112-.LASFDE112
.LASFDE112:
	.4byte	.Lframe0
	.4byte	.LFB179
	.4byte	.LFE179-.LFB179
	.align	2
.LEFDE112:
.LSFDE114:
	.4byte	.LEFDE114-.LASFDE114
.LASFDE114:
	.4byte	.Lframe0
	.4byte	.LFB180
	.4byte	.LFE180-.LFB180
	.align	2
.LEFDE114:
.LSFDE116:
	.4byte	.LEFDE116-.LASFDE116
.LASFDE116:
	.4byte	.Lframe0
	.4byte	.LFB181
	.4byte	.LFE181-.LFB181
	.align	2
.LEFDE116:
.LSFDE118:
	.4byte	.LEFDE118-.LASFDE118
.LASFDE118:
	.4byte	.Lframe0
	.4byte	.LFB182
	.4byte	.LFE182-.LFB182
	.align	2
.LEFDE118:
.LSFDE120:
	.4byte	.LEFDE120-.LASFDE120
.LASFDE120:
	.4byte	.Lframe0
	.4byte	.LFB183
	.4byte	.LFE183-.LFB183
	.align	2
.LEFDE120:
.LSFDE122:
	.4byte	.LEFDE122-.LASFDE122
.LASFDE122:
	.4byte	.Lframe0
	.4byte	.LFB184
	.4byte	.LFE184-.LFB184
	.align	2
.LEFDE122:
.LSFDE124:
	.4byte	.LEFDE124-.LASFDE124
.LASFDE124:
	.4byte	.Lframe0
	.4byte	.LFB185
	.4byte	.LFE185-.LFB185
	.align	2
.LEFDE124:
.LSFDE126:
	.4byte	.LEFDE126-.LASFDE126
.LASFDE126:
	.4byte	.Lframe0
	.4byte	.LFB186
	.4byte	.LFE186-.LFB186
	.align	2
.LEFDE126:
.LSFDE128:
	.4byte	.LEFDE128-.LASFDE128
.LASFDE128:
	.4byte	.Lframe0
	.4byte	.LFB187
	.4byte	.LFE187-.LFB187
	.align	2
.LEFDE128:
.LSFDE130:
	.4byte	.LEFDE130-.LASFDE130
.LASFDE130:
	.4byte	.Lframe0
	.4byte	.LFB188
	.4byte	.LFE188-.LFB188
	.align	2
.LEFDE130:
.LSFDE132:
	.4byte	.LEFDE132-.LASFDE132
.LASFDE132:
	.4byte	.Lframe0
	.4byte	.LFB189
	.4byte	.LFE189-.LFB189
	.align	2
.LEFDE132:
.LSFDE134:
	.4byte	.LEFDE134-.LASFDE134
.LASFDE134:
	.4byte	.Lframe0
	.4byte	.LFB190
	.4byte	.LFE190-.LFB190
	.align	2
.LEFDE134:
.LSFDE136:
	.4byte	.LEFDE136-.LASFDE136
.LASFDE136:
	.4byte	.Lframe0
	.4byte	.LFB191
	.4byte	.LFE191-.LFB191
	.align	2
.LEFDE136:
.LSFDE138:
	.4byte	.LEFDE138-.LASFDE138
.LASFDE138:
	.4byte	.Lframe0
	.4byte	.LFB192
	.4byte	.LFE192-.LFB192
	.align	2
.LEFDE138:
.LSFDE140:
	.4byte	.LEFDE140-.LASFDE140
.LASFDE140:
	.4byte	.Lframe0
	.4byte	.LFB193
	.4byte	.LFE193-.LFB193
	.align	2
.LEFDE140:
.LSFDE142:
	.4byte	.LEFDE142-.LASFDE142
.LASFDE142:
	.4byte	.Lframe0
	.4byte	.LFB194
	.4byte	.LFE194-.LFB194
	.align	2
.LEFDE142:
.LSFDE144:
	.4byte	.LEFDE144-.LASFDE144
.LASFDE144:
	.4byte	.Lframe0
	.4byte	.LFB195
	.4byte	.LFE195-.LFB195
	.align	2
.LEFDE144:
.LSFDE146:
	.4byte	.LEFDE146-.LASFDE146
.LASFDE146:
	.4byte	.Lframe0
	.4byte	.LFB212
	.4byte	.LFE212-.LFB212
	.align	2
.LEFDE146:
.LSFDE148:
	.4byte	.LEFDE148-.LASFDE148
.LASFDE148:
	.4byte	.Lframe0
	.4byte	.LFB213
	.4byte	.LFE213-.LFB213
	.align	2
.LEFDE148:
.LSFDE150:
	.4byte	.LEFDE150-.LASFDE150
.LASFDE150:
	.4byte	.Lframe0
	.4byte	.LFB214
	.4byte	.LFE214-.LFB214
	.align	2
.LEFDE150:
.LSFDE152:
	.4byte	.LEFDE152-.LASFDE152
.LASFDE152:
	.4byte	.Lframe0
	.4byte	.LFB215
	.4byte	.LFE215-.LFB215
	.align	2
.LEFDE152:
.LSFDE154:
	.4byte	.LEFDE154-.LASFDE154
.LASFDE154:
	.4byte	.Lframe0
	.4byte	.LFB216
	.4byte	.LFE216-.LFB216
	.align	2
.LEFDE154:
.LSFDE156:
	.4byte	.LEFDE156-.LASFDE156
.LASFDE156:
	.4byte	.Lframe0
	.4byte	.LFB217
	.4byte	.LFE217-.LFB217
	.align	2
.LEFDE156:
.LSFDE158:
	.4byte	.LEFDE158-.LASFDE158
.LASFDE158:
	.4byte	.Lframe0
	.4byte	.LFB218
	.4byte	.LFE218-.LFB218
	.align	2
.LEFDE158:
.LSFDE160:
	.4byte	.LEFDE160-.LASFDE160
.LASFDE160:
	.4byte	.Lframe0
	.4byte	.LFB219
	.4byte	.LFE219-.LFB219
	.align	2
.LEFDE160:
.LSFDE162:
	.4byte	.LEFDE162-.LASFDE162
.LASFDE162:
	.4byte	.Lframe0
	.4byte	.LFB220
	.4byte	.LFE220-.LFB220
	.align	2
.LEFDE162:
.LSFDE164:
	.4byte	.LEFDE164-.LASFDE164
.LASFDE164:
	.4byte	.Lframe0
	.4byte	.LFB221
	.4byte	.LFE221-.LFB221
	.align	2
.LEFDE164:
.LSFDE166:
	.4byte	.LEFDE166-.LASFDE166
.LASFDE166:
	.4byte	.Lframe0
	.4byte	.LFB222
	.4byte	.LFE222-.LFB222
	.align	2
.LEFDE166:
.LSFDE168:
	.4byte	.LEFDE168-.LASFDE168
.LASFDE168:
	.4byte	.Lframe0
	.4byte	.LFB223
	.4byte	.LFE223-.LFB223
	.align	2
.LEFDE168:
.LSFDE170:
	.4byte	.LEFDE170-.LASFDE170
.LASFDE170:
	.4byte	.Lframe0
	.4byte	.LFB224
	.4byte	.LFE224-.LFB224
	.align	2
.LEFDE170:
.LSFDE172:
	.4byte	.LEFDE172-.LASFDE172
.LASFDE172:
	.4byte	.Lframe0
	.4byte	.LFB225
	.4byte	.LFE225-.LFB225
	.align	2
.LEFDE172:
.LSFDE174:
	.4byte	.LEFDE174-.LASFDE174
.LASFDE174:
	.4byte	.Lframe0
	.4byte	.LFB226
	.4byte	.LFE226-.LFB226
	.align	2
.LEFDE174:
.LSFDE176:
	.4byte	.LEFDE176-.LASFDE176
.LASFDE176:
	.4byte	.Lframe0
	.4byte	.LFB227
	.4byte	.LFE227-.LFB227
	.align	2
.LEFDE176:
.LSFDE178:
	.4byte	.LEFDE178-.LASFDE178
.LASFDE178:
	.4byte	.Lframe0
	.4byte	.LFB228
	.4byte	.LFE228-.LFB228
	.align	2
.LEFDE178:
.LSFDE180:
	.4byte	.LEFDE180-.LASFDE180
.LASFDE180:
	.4byte	.Lframe0
	.4byte	.LFB229
	.4byte	.LFE229-.LFB229
	.align	2
.LEFDE180:
.LSFDE182:
	.4byte	.LEFDE182-.LASFDE182
.LASFDE182:
	.4byte	.Lframe0
	.4byte	.LFB230
	.4byte	.LFE230-.LFB230
	.align	2
.LEFDE182:
.LSFDE184:
	.4byte	.LEFDE184-.LASFDE184
.LASFDE184:
	.4byte	.Lframe0
	.4byte	.LFB231
	.4byte	.LFE231-.LFB231
	.align	2
.LEFDE184:
.LSFDE186:
	.4byte	.LEFDE186-.LASFDE186
.LASFDE186:
	.4byte	.Lframe0
	.4byte	.LFB232
	.4byte	.LFE232-.LFB232
	.align	2
.LEFDE186:
.LSFDE188:
	.4byte	.LEFDE188-.LASFDE188
.LASFDE188:
	.4byte	.Lframe0
	.4byte	.LFB233
	.4byte	.LFE233-.LFB233
	.align	2
.LEFDE188:
.LSFDE190:
	.4byte	.LEFDE190-.LASFDE190
.LASFDE190:
	.4byte	.Lframe0
	.4byte	.LFB234
	.4byte	.LFE234-.LFB234
	.align	2
.LEFDE190:
.LSFDE192:
	.4byte	.LEFDE192-.LASFDE192
.LASFDE192:
	.4byte	.Lframe0
	.4byte	.LFB235
	.4byte	.LFE235-.LFB235
	.align	2
.LEFDE192:
.LSFDE194:
	.4byte	.LEFDE194-.LASFDE194
.LASFDE194:
	.4byte	.Lframe0
	.4byte	.LFB236
	.4byte	.LFE236-.LFB236
	.align	2
.LEFDE194:
.LSFDE196:
	.4byte	.LEFDE196-.LASFDE196
.LASFDE196:
	.4byte	.Lframe0
	.4byte	.LFB237
	.4byte	.LFE237-.LFB237
	.align	2
.LEFDE196:
.LSFDE198:
	.4byte	.LEFDE198-.LASFDE198
.LASFDE198:
	.4byte	.Lframe0
	.4byte	.LFB238
	.4byte	.LFE238-.LFB238
	.align	2
.LEFDE198:
.LSFDE200:
	.4byte	.LEFDE200-.LASFDE200
.LASFDE200:
	.4byte	.Lframe0
	.4byte	.LFB239
	.4byte	.LFE239-.LFB239
	.align	2
.LEFDE200:
.LSFDE202:
	.4byte	.LEFDE202-.LASFDE202
.LASFDE202:
	.4byte	.Lframe0
	.4byte	.LFB240
	.4byte	.LFE240-.LFB240
	.align	2
.LEFDE202:
.LSFDE204:
	.4byte	.LEFDE204-.LASFDE204
.LASFDE204:
	.4byte	.Lframe0
	.4byte	.LFB241
	.4byte	.LFE241-.LFB241
	.align	2
.LEFDE204:
.LSFDE206:
	.4byte	.LEFDE206-.LASFDE206
.LASFDE206:
	.4byte	.Lframe0
	.4byte	.LFB242
	.4byte	.LFE242-.LFB242
	.align	2
.LEFDE206:
.LSFDE208:
	.4byte	.LEFDE208-.LASFDE208
.LASFDE208:
	.4byte	.Lframe0
	.4byte	.LFB243
	.4byte	.LFE243-.LFB243
	.align	2
.LEFDE208:
.LSFDE210:
	.4byte	.LEFDE210-.LASFDE210
.LASFDE210:
	.4byte	.Lframe0
	.4byte	.LFB244
	.4byte	.LFE244-.LFB244
	.align	2
.LEFDE210:
.LSFDE212:
	.4byte	.LEFDE212-.LASFDE212
.LASFDE212:
	.4byte	.Lframe0
	.4byte	.LFB245
	.4byte	.LFE245-.LFB245
	.align	2
.LEFDE212:
.LSFDE214:
	.4byte	.LEFDE214-.LASFDE214
.LASFDE214:
	.4byte	.Lframe0
	.4byte	.LFB246
	.4byte	.LFE246-.LFB246
	.align	2
.LEFDE214:
.LSFDE216:
	.4byte	.LEFDE216-.LASFDE216
.LASFDE216:
	.4byte	.Lframe0
	.4byte	.LFB247
	.4byte	.LFE247-.LFB247
	.align	2
.LEFDE216:
.LSFDE218:
	.4byte	.LEFDE218-.LASFDE218
.LASFDE218:
	.4byte	.Lframe0
	.4byte	.LFB248
	.4byte	.LFE248-.LFB248
	.align	2
.LEFDE218:
.LSFDE220:
	.4byte	.LEFDE220-.LASFDE220
.LASFDE220:
	.4byte	.Lframe0
	.4byte	.LFB249
	.4byte	.LFE249-.LFB249
	.align	2
.LEFDE220:
.LSFDE222:
	.4byte	.LEFDE222-.LASFDE222
.LASFDE222:
	.4byte	.Lframe0
	.4byte	.LFB250
	.4byte	.LFE250-.LFB250
	.align	2
.LEFDE222:
.LSFDE224:
	.4byte	.LEFDE224-.LASFDE224
.LASFDE224:
	.4byte	.Lframe0
	.4byte	.LFB251
	.4byte	.LFE251-.LFB251
	.align	2
.LEFDE224:
.LSFDE226:
	.4byte	.LEFDE226-.LASFDE226
.LASFDE226:
	.4byte	.Lframe0
	.4byte	.LFB252
	.4byte	.LFE252-.LFB252
	.align	2
.LEFDE226:
.LSFDE228:
	.4byte	.LEFDE228-.LASFDE228
.LASFDE228:
	.4byte	.Lframe0
	.4byte	.LFB253
	.4byte	.LFE253-.LFB253
	.align	2
.LEFDE228:
.LSFDE230:
	.4byte	.LEFDE230-.LASFDE230
.LASFDE230:
	.4byte	.Lframe0
	.4byte	.LFB254
	.4byte	.LFE254-.LFB254
	.align	2
.LEFDE230:
.LSFDE232:
	.4byte	.LEFDE232-.LASFDE232
.LASFDE232:
	.4byte	.Lframe0
	.4byte	.LFB255
	.4byte	.LFE255-.LFB255
	.align	2
.LEFDE232:
.LSFDE234:
	.4byte	.LEFDE234-.LASFDE234
.LASFDE234:
	.4byte	.Lframe0
	.4byte	.LFB256
	.4byte	.LFE256-.LFB256
	.align	2
.LEFDE234:
.LSFDE236:
	.4byte	.LEFDE236-.LASFDE236
.LASFDE236:
	.4byte	.Lframe0
	.4byte	.LFB257
	.4byte	.LFE257-.LFB257
	.align	2
.LEFDE236:
.LSFDE238:
	.4byte	.LEFDE238-.LASFDE238
.LASFDE238:
	.4byte	.Lframe0
	.4byte	.LFB260
	.4byte	.LFE260-.LFB260
	.byte	0x4
	.4byte	.LCFI2-.LFB260
	.byte	0xe
	.uleb128 0x8
	.byte	0x4
	.4byte	.LCFI3-.LCFI2
	.byte	0xe
	.uleb128 0
	.align	2
.LEFDE238:
.LSFDE240:
	.4byte	.LEFDE240-.LASFDE240
.LASFDE240:
	.4byte	.Lframe0
	.4byte	.LFB263
	.4byte	.LFE263-.LFB263
	.byte	0x4
	.4byte	.LCFI4-.LFB263
	.byte	0xe
	.uleb128 0x4
	.byte	0x8e
	.uleb128 0x1
	.byte	0x4
	.4byte	.LCFI5-.LCFI4
	.byte	0xe
	.uleb128 0x18
	.byte	0x4
	.4byte	.LCFI6-.LCFI5
	.byte	0xe
	.uleb128 0x4
	.align	2
.LEFDE240:
.LSFDE242:
	.4byte	.LEFDE242-.LASFDE242
.LASFDE242:
	.4byte	.Lframe0
	.4byte	.LFB269
	.4byte	.LFE269-.LFB269
	.byte	0x4
	.4byte	.LCFI7-.LFB269
	.byte	0xe
	.uleb128 0x4
	.byte	0x8e
	.uleb128 0x1
	.byte	0x4
	.4byte	.LCFI8-.LCFI7
	.byte	0xe
	.uleb128 0x18
	.byte	0x4
	.4byte	.LCFI9-.LCFI8
	.byte	0xe
	.uleb128 0x4
	.align	2
.LEFDE242:
.LSFDE244:
	.4byte	.LEFDE244-.LASFDE244
.LASFDE244:
	.4byte	.Lframe0
	.4byte	.LFB347
	.4byte	.LFE347-.LFB347
	.byte	0x4
	.4byte	.LCFI10-.LFB347
	.byte	0xe
	.uleb128 0x10
	.byte	0x4
	.4byte	.LCFI11-.LCFI10
	.byte	0xe
	.uleb128 0
	.align	2
.LEFDE244:
.LSFDE246:
	.4byte	.LEFDE246-.LASFDE246
.LASFDE246:
	.4byte	.Lframe0
	.4byte	.LFB348
	.4byte	.LFE348-.LFB348
	.byte	0x4
	.4byte	.LCFI12-.LFB348
	.byte	0xe
	.uleb128 0x4
	.byte	0x8e
	.uleb128 0x1
	.byte	0x4
	.4byte	.LCFI13-.LCFI12
	.byte	0xe
	.uleb128 0x10
	.byte	0x4
	.4byte	.LCFI14-.LCFI13
	.byte	0xe
	.uleb128 0x4
	.align	2
.LEFDE246:
.LSFDE248:
	.4byte	.LEFDE248-.LASFDE248
.LASFDE248:
	.4byte	.Lframe0
	.4byte	.LFB367
	.4byte	.LFE367-.LFB367
	.byte	0x4
	.4byte	.LCFI15-.LFB367
	.byte	0xe
	.uleb128 0x10
	.byte	0x84
	.uleb128 0x4
	.byte	0x85
	.uleb128 0x3
	.byte	0x86
	.uleb128 0x2
	.byte	0x8e
	.uleb128 0x1
	.byte	0x4
	.4byte	.LCFI16-.LCFI15
	.byte	0xe
	.uleb128 0x38
	.byte	0x4
	.4byte	.LCFI17-.LCFI16
	.byte	0xe
	.uleb128 0x10
	.align	2
.LEFDE248:
.LSFDE250:
	.4byte	.LEFDE250-.LASFDE250
.LASFDE250:
	.4byte	.Lframe0
	.4byte	.LFB368
	.4byte	.LFE368-.LFB368
	.byte	0x4
	.4byte	.LCFI18-.LFB368
	.byte	0xe
	.uleb128 0x4
	.byte	0x8e
	.uleb128 0x1
	.byte	0x4
	.4byte	.LCFI19-.LCFI18
	.byte	0xe
	.uleb128 0x10
	.byte	0x4
	.4byte	.LCFI20-.LCFI19
	.byte	0xe
	.uleb128 0x4
	.align	2
.LEFDE250:
.LSFDE252:
	.4byte	.LEFDE252-.LASFDE252
.LASFDE252:
	.4byte	.Lframe0
	.4byte	.LFB369
	.4byte	.LFE369-.LFB369
	.byte	0x4
	.4byte	.LCFI21-.LFB369
	.byte	0xe
	.uleb128 0x4
	.byte	0x8e
	.uleb128 0x1
	.byte	0x4
	.4byte	.LCFI22-.LCFI21
	.byte	0xe
	.uleb128 0x18
	.byte	0x4
	.4byte	.LCFI23-.LCFI22
	.byte	0xe
	.uleb128 0x4
	.align	2
.LEFDE252:
.LSFDE254:
	.4byte	.LEFDE254-.LASFDE254
.LASFDE254:
	.4byte	.Lframe0
	.4byte	.LFB370
	.4byte	.LFE370-.LFB370
	.byte	0x4
	.4byte	.LCFI24-.LFB370
	.byte	0xe
	.uleb128 0x4
	.byte	0x8e
	.uleb128 0x1
	.byte	0x4
	.4byte	.LCFI25-.LCFI24
	.byte	0xe
	.uleb128 0x20
	.byte	0x4
	.4byte	.LCFI26-.LCFI25
	.byte	0xe
	.uleb128 0x4
	.align	2
.LEFDE254:
.LSFDE256:
	.4byte	.LEFDE256-.LASFDE256
.LASFDE256:
	.4byte	.Lframe0
	.4byte	.LFB371
	.4byte	.LFE371-.LFB371
	.byte	0x4
	.4byte	.LCFI27-.LFB371
	.byte	0xe
	.uleb128 0x4
	.byte	0x8e
	.uleb128 0x1
	.byte	0x4
	.4byte	.LCFI28-.LCFI27
	.byte	0xe
	.uleb128 0x28
	.byte	0x4
	.4byte	.LCFI29-.LCFI28
	.byte	0xe
	.uleb128 0x4
	.align	2
.LEFDE256:
.LSFDE258:
	.4byte	.LEFDE258-.LASFDE258
.LASFDE258:
	.4byte	.Lframe0
	.4byte	.LFB372
	.4byte	.LFE372-.LFB372
	.byte	0x4
	.4byte	.LCFI30-.LFB372
	.byte	0xe
	.uleb128 0x4
	.byte	0x8e
	.uleb128 0x1
	.byte	0x4
	.4byte	.LCFI31-.LCFI30
	.byte	0xe
	.uleb128 0x10
	.byte	0x4
	.4byte	.LCFI32-.LCFI31
	.byte	0xe
	.uleb128 0x4
	.align	2
.LEFDE258:
.LSFDE260:
	.4byte	.LEFDE260-.LASFDE260
.LASFDE260:
	.4byte	.Lframe0
	.4byte	.LFB373
	.4byte	.LFE373-.LFB373
	.byte	0x4
	.4byte	.LCFI33-.LFB373
	.byte	0xe
	.uleb128 0x4
	.byte	0x8e
	.uleb128 0x1
	.byte	0x4
	.4byte	.LCFI34-.LCFI33
	.byte	0xe
	.uleb128 0x70
	.byte	0x4
	.4byte	.LCFI35-.LCFI34
	.byte	0xe
	.uleb128 0x4
	.align	2
.LEFDE260:
.LSFDE262:
	.4byte	.LEFDE262-.LASFDE262
.LASFDE262:
	.4byte	.Lframe0
	.4byte	.LFB374
	.4byte	.LFE374-.LFB374
	.byte	0x4
	.4byte	.LCFI36-.LFB374
	.byte	0xe
	.uleb128 0x4
	.byte	0x8e
	.uleb128 0x1
	.byte	0x4
	.4byte	.LCFI37-.LCFI36
	.byte	0xe
	.uleb128 0x18
	.byte	0x4
	.4byte	.LCFI38-.LCFI37
	.byte	0xe
	.uleb128 0x4
	.align	2
.LEFDE262:
.LSFDE264:
	.4byte	.LEFDE264-.LASFDE264
.LASFDE264:
	.4byte	.Lframe0
	.4byte	.LFB375
	.4byte	.LFE375-.LFB375
	.byte	0x4
	.4byte	.LCFI39-.LFB375
	.byte	0xe
	.uleb128 0x4
	.byte	0x8e
	.uleb128 0x1
	.byte	0x4
	.4byte	.LCFI40-.LCFI39
	.byte	0xe
	.uleb128 0x28
	.byte	0x4
	.4byte	.LCFI41-.LCFI40
	.byte	0xe
	.uleb128 0x4
	.align	2
.LEFDE264:
.LSFDE266:
	.4byte	.LEFDE266-.LASFDE266
.LASFDE266:
	.4byte	.Lframe0
	.4byte	.LFB376
	.4byte	.LFE376-.LFB376
	.byte	0x4
	.4byte	.LCFI42-.LFB376
	.byte	0xe
	.uleb128 0x4
	.byte	0x8e
	.uleb128 0x1
	.byte	0x4
	.4byte	.LCFI43-.LCFI42
	.byte	0xe
	.uleb128 0x20
	.align	2
.LEFDE266:
	.text
.Letext0:
	.file 12 "C:/Program Files/SEGGER/SEGGER Embedded Studio for ARM 4.16/include/stdint.h"
	.file 13 "C:/Program Files/SEGGER/SEGGER Embedded Studio for ARM 4.16/include/__crossworks.h"
	.file 14 "C:/Program Files/SEGGER/SEGGER Embedded Studio for ARM 4.16/include/string.h"
	.file 15 "../../../sdk_components/device/nrf52.h"
	.file 16 "../../../sdk_components/toolchain/system_nrf52.h"
	.file 17 "../../../sdk_components/softdevice/s132/headers/ble_types.h"
	.file 18 "../../../sdk_components/softdevice/s132/headers/ble_gatt.h"
	.file 19 "../../../sdk_components/libraries/util/app_util.h"
	.file 20 "C:/Program Files/SEGGER/SEGGER Embedded Studio for ARM 4.16/include/stdio.h"
	.file 21 "../../../sdk_components/libraries/util/app_error.h"
	.file 22 "../../../sdk_components/softdevice/s132/headers/nrf_nvic.h"
	.file 23 "../../../sdk_components/libraries/util/app_util_platform.h"
	.file 24 "../../../include/modules/m_ble.h"
	.file 25 "../../../sdk_components/drivers_nrf/hal/nrf_twi.h"
	.file 26 "../../../sdk_components/drivers_nrf/twi_master/nrf_drv_twi.h"
	.file 27 "../../../include/modules/m_environment.h"
	.file 28 "../../../include/modules/m_motion.h"
	.file 29 "../../../include/modules/m_ui.h"
	.file 30 "../../../sdk_components/drivers_nrf/hal/nrf_saadc.h"
	.file 31 "../../../include/modules/m_batt_meas.h"
	.file 32 "../../../include/drivers/drv_sx1509.h"
	.file 33 "../../../sdk_components/libraries/timer/app_timer.h"
	.file 34 "../../../include/drivers/drv_ext_light.h"
	.file 35 "../../../include/drivers/drv_ext_gpio.h"
	.file 36 "../../../include/board/pca20020.h"
	.file 37 "./drv_ADG728.h"
	.file 38 "./drv_AD5245.h"